   1              		.file	"CB.c"
   2              		.section	".text"
   3              	.Ltext0:
   4              		.cfi_sections	.debug_frame
   5              		.globl __floatsidf
   6              		.globl __gedf2
   7              		.align 2
   8              		.globl CB
   9              		.type	CB, @function
  10              	CB:
  11              	.LFB0:
  12              		.file 1 "CB.c"
  13              		.loc 1 55 0
  14              		.cfi_startproc
  15              	.LVL0:
  16 0000 9421FFD8 		stwu %r1,-40(%r1)
  17              	.LCFI0:
  18              		.cfi_def_cfa_offset 40
  19 0004 7C0802A6 		mflr %r0
  20 0008 9001002C 		stw %r0,44(%r1)
  21 000c 93010008 		stw %r24,8(%r1)
  22 0010 9321000C 		stw %r25,12(%r1)
  23 0014 93410010 		stw %r26,16(%r1)
  24 0018 93610014 		stw %r27,20(%r1)
  25 001c 93810018 		stw %r28,24(%r1)
  26 0020 93A1001C 		stw %r29,28(%r1)
  27 0024 93C10020 		stw %r30,32(%r1)
  28 0028 93E10024 		stw %r31,36(%r1)
  29              		.cfi_offset 65, 4
  30              		.cfi_offset 24, -32
  31              		.cfi_offset 25, -28
  32              		.cfi_offset 26, -24
  33              		.cfi_offset 27, -20
  34              		.cfi_offset 28, -16
  35              		.cfi_offset 29, -12
  36              		.cfi_offset 30, -8
  37              		.cfi_offset 31, -4
  38 002c 7C791B78 		mr %r25,%r3
  39 0030 7C982378 		mr %r24,%r4
  40 0034 7CBC2B78 		mr %r28,%r5
  41 0038 7CDB3378 		mr %r27,%r6
  42              		.loc 1 63 0
  43 003c 83C30000 		lwz %r30,0(%r3)
  44              	.LVL1:
  45 0040 7C7F1B78 		mr %r31,%r3
  46 0044 3BA00027 		li %r29,39
  47              	.LVL2:
  48              	.L3:
  49 0048 3BFF0004 		addi %r31,%r31,4
  50              		.loc 1 65 0
  51 004c 807F0000 		lwz %r3,0(%r31)
  52 0050 1383F2CC 		efscmpgt %cr7,%r3,%r30
  53 0054 1303F2CE 		efscmpeq %cr6,%r3,%r30
  54 0058 4FBDCB82 		cror 4*%cr7+gt,4*%cr7+gt,4*%cr6+gt
  55 005c 41FD0014 		bgt+ %cr7,.L2
  56              		.loc 1 65 0 is_stmt 0 discriminator 1
  57 0060 48000001 		bl rtIsNaN
  58              	.LVL3:
  59 0064 2F830000 		cmpwi %cr7,%r3,0
  60 0068 40DE0008 		bne- %cr7,.L2
  61              		.loc 1 66 0 is_stmt 1
  62 006c 83DF0000 		lwz %r30,0(%r31)
  63              	.LVL4:
  64              	.L2:
  65              		.loc 1 64 0
  66 0070 37BDFFFF 		addic. %r29,%r29,-1
  67 0074 40E2FFD4 		bne+ %cr0,.L3
  68              		.loc 1 77 0
  69 0078 3D200000 		lis %r9,cblc_battChargingMode@ha
  70 007c 81290000 		lwz %r9,cblc_battChargingMode@l(%r9)
  71 0080 89580000 		lbz %r10,0(%r24)
  72 0084 114052D1 		efscfsi %r10,%r10
  73 0088 138A4ACE 		efscmpeq %cr7,%r10,%r9
  74 008c 40DD0024 		bng- %cr7,.L10
  75              		.loc 1 77 0 is_stmt 0 discriminator 1
  76 0090 3D200000 		lis %r9,cblc_socThreshBalance@ha
  77 0094 81290000 		lwz %r9,cblc_socThreshBalance@l(%r9)
  78 0098 1389F2CD 		efscmplt %cr7,%r9,%r30
  79 009c 1309F2CE 		efscmpeq %cr6,%r9,%r30
  80 00a0 4FBDCB82 		cror 4*%cr7+gt,4*%cr7+gt,4*%cr6+gt
  81 00a4 7CA00026 		mfcr %r5
  82 00a8 54A5F7FE 		rlwinm %r5,%r5,30,31,31
  83 00ac 48000008 		b .L4
  84              	.L10:
  85              		.loc 1 77 0
  86 00b0 38A00000 		li %r5,0
  87              	.L4:
  88              		.loc 1 77 0 discriminator 4
  89 00b4 54A5063E 		rlwinm %r5,%r5,0,0xff
  90              	.LVL5:
  91              		.loc 1 53 0 is_stmt 1 discriminator 4
  92 00b8 38F9FFFC 		addi %r7,%r25,-4
  93              		.loc 1 86 0 discriminator 4
  94 00bc 39200000 		li %r9,0
  95              		.loc 1 87 0 discriminator 4
  96 00c0 3CC00000 		lis %r6,cblc_deltaSocThreshBalance@ha
  97 00c4 38800000 		li %r4,0
  98 00c8 7CA500D0 		neg %r5,%r5
  99              	.LVL6:
 100 00cc 54A50FFE 		srwi %r5,%r5,31
 101              	.LVL7:
 102 00d0 39400028 		li %r10,40
 103 00d4 7D4903A6 		mtctr %r10
 104              	.LVL8:
 105              	.L7:
 106              		.loc 1 87 0 is_stmt 0
 107 00d8 81460000 		lwz %r10,cblc_deltaSocThreshBalance@l(%r6)
 108 00dc 85070004 		lwzu %r8,4(%r7)
 109 00e0 1108F2C1 		efssub %r8,%r8,%r30
 110 00e4 138852CC 		efscmpgt %cr7,%r8,%r10
 111 00e8 130852CE 		efscmpeq %cr6,%r8,%r10
 112 00ec 4FBDCB82 		cror 4*%cr7+gt,4*%cr7+gt,4*%cr6+gt
 113 00f0 40DD000C 		bng- %cr7,.L16
 114              		.loc 1 87 0 discriminator 1
 115 00f4 7CAA2B78 		mr %r10,%r5
 116 00f8 48000008 		b .L5
 117              	.L16:
 118              		.loc 1 87 0
 119 00fc 7C8A2378 		mr %r10,%r4
 120              	.L5:
 121              		.loc 1 87 0 discriminator 4
 122 0100 7D5C49AE 		stbx %r10,%r28,%r9
 123              		.loc 1 86 0 is_stmt 1 discriminator 4
 124 0104 39290001 		addi %r9,%r9,1
 125              	.LVL9:
 126 0108 4200FFD0 		bdnz .L7
 127              		.loc 1 94 0
 128 010c 887C0000 		lbz %r3,0(%r28)
 129              	.LVL10:
 130 0110 39200001 		li %r9,1
 131 0114 39400027 		li %r10,39
 132 0118 7D4903A6 		mtctr %r10
 133              	.LVL11:
 134              	.L8:
 135              		.loc 1 96 0 discriminator 2
 136 011c 7D5C48AE 		lbzx %r10,%r28,%r9
 137 0120 7C635214 		add %r3,%r3,%r10
 138              	.LVL12:
 139 0124 39290001 		addi %r9,%r9,1
 140              		.loc 1 95 0 discriminator 2
 141 0128 4200FFF4 		bdnz .L8
 142              		.loc 1 104 0
 143 012c 5463063E 		rlwinm %r3,%r3,0,24,31
 144              	.LVL13:
 145 0130 48000001 		bl __floatsidf
 146              	.LVL14:
 147 0134 3CA03FE0 		lis %r5,0x3fe0
 148 0138 38C00000 		li %r6,0
 149 013c 48000001 		bl __gedf2
 150              	.LVL15:
 151 0140 7C6318F8 		nor %r3,%r3,%r3
 152 0144 54630FFE 		srwi %r3,%r3,31
 153 0148 987B0000 		stb %r3,0(%r27)
 154              		.loc 1 107 0
 155 014c 8001002C 		lwz %r0,44(%r1)
 156 0150 7C0803A6 		mtlr %r0
 157 0154 83010008 		lwz %r24,8(%r1)
 158              	.LVL16:
 159 0158 8321000C 		lwz %r25,12(%r1)
 160              	.LVL17:
 161 015c 83410010 		lwz %r26,16(%r1)
 162 0160 83610014 		lwz %r27,20(%r1)
 163              	.LVL18:
 164 0164 83810018 		lwz %r28,24(%r1)
 165              	.LVL19:
 166 0168 83A1001C 		lwz %r29,28(%r1)
 167 016c 83C10020 		lwz %r30,32(%r1)
 168              	.LVL20:
 169 0170 83E10024 		lwz %r31,36(%r1)
 170 0174 38210028 		addi %r1,%r1,40
 171              	.LCFI1:
 172              		.cfi_restore 31
 173              		.cfi_restore 30
 174              		.cfi_restore 29
 175              		.cfi_restore 28
 176              		.cfi_restore 27
 177              		.cfi_restore 26
 178              		.cfi_restore 25
 179              		.cfi_restore 24
 180              		.cfi_restore 65
 181              		.cfi_def_cfa_offset 0
 182 0178 4E800020 		blr
 183              		.cfi_endproc
 184              	.LFE0:
 185              		.size	CB, .-CB
 186              		.align 2
 187              		.globl CB_initialize
 188              		.type	CB_initialize, @function
 189              	CB_initialize:
 190              	.LFB1:
 191              		.loc 1 111 0
 192              		.cfi_startproc
 193              	.LVL21:
 194 017c 9421FFF0 		stwu %r1,-16(%r1)
 195              	.LCFI2:
 196              		.cfi_def_cfa_offset 16
 197 0180 7C0802A6 		mflr %r0
 198 0184 90010014 		stw %r0,20(%r1)
 199 0188 93C10008 		stw %r30,8(%r1)
 200 018c 93E1000C 		stw %r31,12(%r1)
 201              		.cfi_offset 65, 4
 202              		.cfi_offset 30, -8
 203              		.cfi_offset 31, -4
 204 0190 7C7E1B78 		mr %r30,%r3
 205 0194 7C9F2378 		mr %r31,%r4
 206              		.loc 1 115 0
 207 0198 38600004 		li %r3,4
 208              	.LVL22:
 209 019c 48000001 		bl rt_InitInfAndNaN
 210              	.LVL23:
 211              		.loc 1 118 0
 212 01a0 93DF0000 		stw %r30,0(%r31)
 213              		.loc 1 119 0
 214 01a4 80010014 		lwz %r0,20(%r1)
 215 01a8 7C0803A6 		mtlr %r0
 216 01ac 83C10008 		lwz %r30,8(%r1)
 217              	.LVL24:
 218 01b0 83E1000C 		lwz %r31,12(%r1)
 219              	.LVL25:
 220 01b4 38210010 		addi %r1,%r1,16
 221              	.LCFI3:
 222              		.cfi_restore 31
 223              		.cfi_restore 30
 224              		.cfi_restore 65
 225              		.cfi_def_cfa_offset 0
 226 01b8 4E800020 		blr
 227              		.cfi_endproc
 228              	.LFE1:
 229              		.size	CB_initialize, .-CB_initialize
 230              	.Letext0:
 231              		.file 2 "../../../slprj/openecu_ert/_sharedutils/rtwtypes.h"
 232              		.file 3 "c:\\openecu\\platform\\2_8_0_r2019-1\\tools\\gcc_4_7_3\\ppc\\bin\\../lib/gcc/powerpc-eabi
 233              		.file 4 "c:/openecu/platform/2_8_0_r2019-1/openecu/../targets/M110/M110_000/mpc5534_lib/include/ps
 234              		.file 5 "CB_types.h"
 235              		.file 6 "../../../slprj/openecu_ert/_sharedutils/global.h"
 236              		.file 7 "CB.h"
 237              		.file 8 "../../../slprj/openecu_ert/_sharedutils/rt_nonfinite.h"