   1              		.file	"BSC.c"
   2              		.section	".text"
   3              	.Ltext0:
   4              		.cfi_sections	.debug_frame
   5              		.align 2
   6              		.type	BSC_enter_internal_Key_ON, @function
   7              	BSC_enter_internal_Key_ON:
   8              	.LFB3:
   9              		.file 1 "BSC.c"
  10              		.loc 1 309 0
  11              		.cfi_startproc
  12              	.LVL0:
  13              		.loc 1 314 0
  14 0000 81250000 		lwz %r9,0(%r5)
  15 0004 2F890000 		cmpwi %cr7,%r9,0
  16 0008 40DE0028 		bne- %cr7,.L2
  17              		.loc 1 314 0 is_stmt 0 discriminator 1
  18 000c 8925000A 		lbz %r9,10(%r5)
  19 0010 2F890000 		cmpwi %cr7,%r9,0
  20 0014 40DE001C 		bne- %cr7,.L2
  21              		.loc 1 317 0 is_stmt 1
  22 0018 89250009 		lbz %r9,9(%r5)
  23 001c 39290001 		addi %r9,%r9,1
  24              	.LVL1:
  25              		.loc 1 322 0
  26 0020 2F8900FF 		cmpwi %cr7,%r9,255
  27 0024 394000FF 		li %r10,255
  28 0028 7D29571E 		isel %r9,%r9,%r10,28
  29              	.LVL2:
  30 002c 99250009 		stb %r9,9(%r5)
  31              	.LVL3:
  32              	.L2:
  33              		.loc 1 330 0
  34 0030 89250009 		lbz %r9,9(%r5)
  35 0034 2B890001 		cmplwi %cr7,%r9,1
  36 0038 40DD000C 		ble- %cr7,.L3
  37              		.loc 1 333 0
  38 003c 39200001 		li %r9,1
  39 0040 99250009 		stb %r9,9(%r5)
  40              	.L3:
  41              		.loc 1 342 0
  42 0044 2F830001 		cmpwi %cr7,%r3,1
  43 0048 40FE0020 		bne+ %cr7,.L4
  44              		.loc 1 345 0
  45 004c 39200000 		li %r9,0
  46 0050 99240000 		stb %r9,0(%r4)
  47              		.loc 1 346 0
  48 0054 99250009 		stb %r9,9(%r5)
  49              		.loc 1 347 0
  50 0058 99250008 		stb %r9,8(%r5)
  51              		.loc 1 348 0
  52 005c 39200001 		li %r9,1
  53 0060 9925000B 		stb %r9,11(%r5)
  54 0064 4E800020 		blr
  55              	.L4:
  56              		.loc 1 353 0
  57 0068 89250009 		lbz %r9,9(%r5)
  58 006c 2F890001 		cmpwi %cr7,%r9,1
  59 0070 4CFE0020 		bnelr+ %cr7
  60              		.loc 1 356 0
  61 0074 99240000 		stb %r9,0(%r4)
  62 0078 4E800020 		blr
  63              		.cfi_endproc
  64              	.LFE3:
  65              		.size	BSC_enter_internal_Key_ON, .-BSC_enter_internal_Key_ON
  66              		.align 2
  67              		.type	BSC_enter_internal_Key_OFF, @function
  68              	BSC_enter_internal_Key_OFF:
  69              	.LFB4:
  70              		.loc 1 372 0
  71              		.cfi_startproc
  72              	.LVL4:
  73              		.loc 1 377 0
  74 007c 81250000 		lwz %r9,0(%r5)
  75 0080 2F890000 		cmpwi %cr7,%r9,0
  76 0084 40DE0028 		bne- %cr7,.L7
  77              		.loc 1 377 0 is_stmt 0 discriminator 1
  78 0088 8925000B 		lbz %r9,11(%r5)
  79 008c 2F890000 		cmpwi %cr7,%r9,0
  80 0090 40DE001C 		bne- %cr7,.L7
  81              		.loc 1 380 0 is_stmt 1
  82 0094 89250008 		lbz %r9,8(%r5)
  83 0098 39290001 		addi %r9,%r9,1
  84              	.LVL5:
  85              		.loc 1 385 0
  86 009c 2F8900FF 		cmpwi %cr7,%r9,255
  87 00a0 394000FF 		li %r10,255
  88 00a4 7D29571E 		isel %r9,%r9,%r10,28
  89              	.LVL6:
  90 00a8 99250008 		stb %r9,8(%r5)
  91              	.LVL7:
  92              	.L7:
  93              		.loc 1 393 0
  94 00ac 89250008 		lbz %r9,8(%r5)
  95 00b0 2B890001 		cmplwi %cr7,%r9,1
  96 00b4 40DD000C 		ble- %cr7,.L8
  97              		.loc 1 396 0
  98 00b8 39200001 		li %r9,1
  99 00bc 99250008 		stb %r9,8(%r5)
 100              	.L8:
 101              		.loc 1 405 0
 102 00c0 2F830001 		cmpwi %cr7,%r3,1
 103 00c4 40FE0020 		bne+ %cr7,.L9
 104              		.loc 1 408 0
 105 00c8 39200000 		li %r9,0
 106 00cc 99240000 		stb %r9,0(%r4)
 107              		.loc 1 409 0
 108 00d0 99250008 		stb %r9,8(%r5)
 109              		.loc 1 410 0
 110 00d4 99250009 		stb %r9,9(%r5)
 111              		.loc 1 411 0
 112 00d8 39200001 		li %r9,1
 113 00dc 9925000A 		stb %r9,10(%r5)
 114 00e0 4E800020 		blr
 115              	.L9:
 116              		.loc 1 416 0
 117 00e4 89250008 		lbz %r9,8(%r5)
 118 00e8 2F890001 		cmpwi %cr7,%r9,1
 119 00ec 4CFE0020 		bnelr+ %cr7
 120              		.loc 1 419 0
 121 00f0 99240000 		stb %r9,0(%r4)
 122 00f4 4E800020 		blr
 123              		.cfi_endproc
 124              	.LFE4:
 125              		.size	BSC_enter_internal_Key_OFF, .-BSC_enter_internal_Key_OFF
 126              		.align 2
 127              		.type	BSC_chartstep_c1_BSC, @function
 128              	BSC_chartstep_c1_BSC:
 129              	.LFB5:
 130              		.loc 1 435 0
 131              		.cfi_startproc
 132              	.LVL8:
 133 00f8 9421FFF8 		stwu %r1,-8(%r1)
 134              	.LCFI0:
 135              		.cfi_def_cfa_offset 8
 136 00fc 7C0802A6 		mflr %r0
 137 0100 9001000C 		stw %r0,12(%r1)
 138              		.cfi_offset 65, 4
 139              		.loc 1 437 0
 140 0104 81250004 		lwz %r9,4(%r5)
 141 0108 752A2000 		andis. %r10,%r9,8192
 142 010c 40C2005C 		bne- %cr0,.L12
 143              		.loc 1 439 0
 144 0110 89250004 		lbz %r9,4(%r5)
 145 0114 61290020 		ori %r9,%r9,32
 146 0118 99250004 		stb %r9,4(%r5)
 147              		.loc 1 442 0
 148 011c 81250000 		lwz %r9,0(%r5)
 149 0120 2F890000 		cmpwi %cr7,%r9,0
 150 0124 40FE0020 		bne+ %cr7,.L13
 151              		.loc 1 444 0
 152 0128 89250004 		lbz %r9,4(%r5)
 153 012c 552906BE 		rlwinm %r9,%r9,0,26,31
 154 0130 3940FF80 		li %r10,-128
 155 0134 7D295378 		or %r9,%r9,%r10
 156 0138 99250004 		stb %r9,4(%r5)
 157              		.loc 1 450 0
 158 013c 4BFFFEC5 		bl BSC_enter_internal_Key_ON
 159              	.LVL9:
 160 0140 48000110 		b .L11
 161              	.LVL10:
 162              	.L13:
 163              		.loc 1 453 0
 164 0144 89250004 		lbz %r9,4(%r5)
 165 0148 3940FFC0 		li %r10,-64
 166 014c 7D295378 		or %r9,%r9,%r10
 167 0150 99250004 		stb %r9,4(%r5)
 168              		.loc 1 456 0
 169 0154 39200000 		li %r9,0
 170 0158 99240000 		stb %r9,0(%r4)
 171              		.loc 1 457 0
 172 015c 39200001 		li %r9,1
 173 0160 9925000A 		stb %r9,10(%r5)
 174 0164 480000EC 		b .L11
 175              	.L12:
 176              		.loc 1 460 0
 177 0168 81250004 		lwz %r9,4(%r5)
 178 016c 552917BE 		srwi %r9,%r9,30
 179 0170 2F890001 		cmpwi %cr7,%r9,1
 180 0174 41DE0010 		beq- %cr7,.L16
 181 0178 2F890002 		cmpwi %cr7,%r9,2
 182 017c 40FE00B0 		bne+ %cr7,.L20
 183 0180 48000058 		b .L17
 184              	.L16:
 185              		.loc 1 463 0
 186 0184 81250000 		lwz %r9,0(%r5)
 187 0188 2F890000 		cmpwi %cr7,%r9,0
 188 018c 40FE0024 		bne+ %cr7,.L18
 189              		.loc 1 466 0
 190 0190 9925000B 		stb %r9,11(%r5)
 191              		.loc 1 467 0
 192 0194 89250004 		lbz %r9,4(%r5)
 193 0198 552906BE 		rlwinm %r9,%r9,0,26,31
 194 019c 3940FF80 		li %r10,-128
 195 01a0 7D295378 		or %r9,%r9,%r10
 196 01a4 99250004 		stb %r9,4(%r5)
 197              		.loc 1 473 0
 198 01a8 4BFFFE59 		bl BSC_enter_internal_Key_ON
 199              	.LVL11:
 200 01ac 480000A4 		b .L11
 201              	.LVL12:
 202              	.L18:
 203              		.loc 1 475 0
 204 01b0 2F890001 		cmpwi %cr7,%r9,1
 205 01b4 40FE009C 		bne+ %cr7,.L11
 206              		.loc 1 478 0
 207 01b8 39200000 		li %r9,0
 208 01bc 9925000B 		stb %r9,11(%r5)
 209              		.loc 1 479 0
 210 01c0 89250004 		lbz %r9,4(%r5)
 211 01c4 552906BE 		rlwinm %r9,%r9,0,26,31
 212 01c8 61290040 		ori %r9,%r9,64
 213 01cc 99250004 		stb %r9,4(%r5)
 214              		.loc 1 485 0
 215 01d0 4BFFFEAD 		bl BSC_enter_internal_Key_OFF
 216              	.LVL13:
 217 01d4 4800007C 		b .L11
 218              	.LVL14:
 219              	.L17:
 220              		.loc 1 492 0
 221 01d8 81250000 		lwz %r9,0(%r5)
 222 01dc 2F890000 		cmpwi %cr7,%r9,0
 223 01e0 40FE0020 		bne+ %cr7,.L19
 224              		.loc 1 495 0
 225 01e4 9925000A 		stb %r9,10(%r5)
 226              		.loc 1 496 0
 227 01e8 89250004 		lbz %r9,4(%r5)
 228 01ec 552906BE 		rlwinm %r9,%r9,0,26,31
 229 01f0 61290040 		ori %r9,%r9,64
 230 01f4 99250004 		stb %r9,4(%r5)
 231              		.loc 1 502 0
 232 01f8 4BFFFE85 		bl BSC_enter_internal_Key_OFF
 233              	.LVL15:
 234 01fc 48000054 		b .L11
 235              	.LVL16:
 236              	.L19:
 237              		.loc 1 504 0
 238 0200 2F890001 		cmpwi %cr7,%r9,1
 239 0204 40FE004C 		bne+ %cr7,.L11
 240              		.loc 1 507 0
 241 0208 39200000 		li %r9,0
 242 020c 9925000A 		stb %r9,10(%r5)
 243              		.loc 1 508 0
 244 0210 89250004 		lbz %r9,4(%r5)
 245 0214 552906BE 		rlwinm %r9,%r9,0,26,31
 246 0218 3940FF80 		li %r10,-128
 247 021c 7D295378 		or %r9,%r9,%r10
 248 0220 99250004 		stb %r9,4(%r5)
 249              		.loc 1 514 0
 250 0224 4BFFFDDD 		bl BSC_enter_internal_Key_ON
 251              	.LVL17:
 252 0228 48000028 		b .L11
 253              	.LVL18:
 254              	.L20:
 255              		.loc 1 521 0
 256 022c 81250000 		lwz %r9,0(%r5)
 257 0230 2F890000 		cmpwi %cr7,%r9,0
 258 0234 40FE001C 		bne+ %cr7,.L11
 259              		.loc 1 523 0
 260 0238 89250004 		lbz %r9,4(%r5)
 261 023c 552906BE 		rlwinm %r9,%r9,0,26,31
 262 0240 3940FF80 		li %r10,-128
 263 0244 7D295378 		or %r9,%r9,%r10
 264 0248 99250004 		stb %r9,4(%r5)
 265              		.loc 1 529 0
 266 024c 4BFFFDB5 		bl BSC_enter_internal_Key_ON
 267              	.LVL19:
 268              	.L11:
 269              		.loc 1 534 0
 270 0250 8001000C 		lwz %r0,12(%r1)
 271 0254 7C0803A6 		mtlr %r0
 272 0258 38210008 		addi %r1,%r1,8
 273              	.LCFI1:
 274              		.cfi_restore 65
 275              		.cfi_def_cfa_offset 0
 276 025c 4E800020 		blr
 277              		.cfi_endproc
 278              	.LFE5:
 279              		.size	BSC_chartstep_c1_BSC, .-BSC_chartstep_c1_BSC
 280              		.align 2
 281              		.globl BSC_check_type_Init
 282              		.type	BSC_check_type_Init, @function
 283              	BSC_check_type_Init:
 284              	.LFB0:
 285              		.loc 1 72 0
 286              		.cfi_startproc
 287              	.LVL20:
 288              		.loc 1 74 0
 289 0260 39200000 		li %r9,0
 290 0264 99230000 		stb %r9,0(%r3)
 291 0268 4E800020 		blr
 292              		.cfi_endproc
 293              	.LFE0:
 294              		.size	BSC_check_type_Init, .-BSC_check_type_Init
 295              		.align 2
 296              		.globl BSC_check_type
 297              		.type	BSC_check_type, @function
 298              	BSC_check_type:
 299              	.LFB1:
 300              		.loc 1 82 0
 301              		.cfi_startproc
 302              	.LVL21:
 303              		.loc 1 88 0
 304 026c 88630000 		lbz %r3,0(%r3)
 305              	.LVL22:
 306 0270 2F830000 		cmpwi %cr7,%r3,0
 307 0274 41FE0014 		beq+ %cr7,.L24
 308              		.loc 1 91 0
 309 0278 39200001 		li %r9,1
 310              	.LVL23:
 311 027c 81410014 		lwz %r10,20(%r1)
 312              	.LVL24:
 313 0280 992A0000 		stb %r9,0(%r10)
 314 0284 4E800020 		blr
 315              	.LVL25:
 316              	.L24:
 317              		.loc 1 106 0
 318 0288 88840000 		lbz %r4,0(%r4)
 319              	.LVL26:
 320 028c 2F840000 		cmpwi %cr7,%r4,0
 321 0290 41FE0014 		beq+ %cr7,.L26
 322              		.loc 1 109 0
 323 0294 39200002 		li %r9,2
 324              	.LVL27:
 325 0298 81610014 		lwz %r11,20(%r1)
 326 029c 992B0000 		stb %r9,0(%r11)
 327 02a0 4E800020 		blr
 328              	.LVL28:
 329              	.L26:
 330              		.loc 1 123 0
 331 02a4 88A50000 		lbz %r5,0(%r5)
 332              	.LVL29:
 333 02a8 2F850000 		cmpwi %cr7,%r5,0
 334 02ac 41FE0014 		beq+ %cr7,.L27
 335              		.loc 1 126 0
 336 02b0 39200003 		li %r9,3
 337              	.LVL30:
 338 02b4 81410014 		lwz %r10,20(%r1)
 339              	.LVL31:
 340 02b8 992A0000 		stb %r9,0(%r10)
 341 02bc 4E800020 		blr
 342              	.LVL32:
 343              	.L27:
 344              		.loc 1 139 0
 345 02c0 88C60000 		lbz %r6,0(%r6)
 346              	.LVL33:
 347 02c4 2F860000 		cmpwi %cr7,%r6,0
 348 02c8 41FE0014 		beq+ %cr7,.L28
 349              		.loc 1 142 0
 350 02cc 39200004 		li %r9,4
 351              	.LVL34:
 352 02d0 81610014 		lwz %r11,20(%r1)
 353 02d4 992B0000 		stb %r9,0(%r11)
 354 02d8 4E800020 		blr
 355              	.LVL35:
 356              	.L28:
 357              		.loc 1 154 0
 358 02dc 88E70000 		lbz %r7,0(%r7)
 359              	.LVL36:
 360 02e0 2F870000 		cmpwi %cr7,%r7,0
 361 02e4 41FE0014 		beq+ %cr7,.L29
 362              		.loc 1 157 0
 363 02e8 39200005 		li %r9,5
 364              	.LVL37:
 365 02ec 81410014 		lwz %r10,20(%r1)
 366              	.LVL38:
 367 02f0 992A0000 		stb %r9,0(%r10)
 368 02f4 4E800020 		blr
 369              	.LVL39:
 370              	.L29:
 371              		.loc 1 168 0
 372 02f8 89080000 		lbz %r8,0(%r8)
 373              	.LVL40:
 374 02fc 2F880000 		cmpwi %cr7,%r8,0
 375 0300 41FE0014 		beq+ %cr7,.L30
 376              		.loc 1 171 0
 377 0304 39200006 		li %r9,6
 378              	.LVL41:
 379 0308 81610014 		lwz %r11,20(%r1)
 380 030c 992B0000 		stb %r9,0(%r11)
 381 0310 4E800020 		blr
 382              	.LVL42:
 383              	.L30:
 384              		.loc 1 181 0
 385 0314 89290000 		lbz %r9,0(%r9)
 386              	.LVL43:
 387 0318 2F890000 		cmpwi %cr7,%r9,0
 388 031c 41FE0014 		beq+ %cr7,.L31
 389              		.loc 1 184 0
 390 0320 39200007 		li %r9,7
 391 0324 81410014 		lwz %r10,20(%r1)
 392              	.LVL44:
 393 0328 992A0000 		stb %r9,0(%r10)
 394 032c 4E800020 		blr
 395              	.LVL45:
 396              	.L31:
 397              		.loc 1 193 0
 398 0330 892A0000 		lbz %r9,0(%r10)
 399 0334 2F890000 		cmpwi %cr7,%r9,0
 400 0338 41FE0014 		beq+ %cr7,.L32
 401              		.loc 1 196 0
 402 033c 39200008 		li %r9,8
 403 0340 81610014 		lwz %r11,20(%r1)
 404 0344 992B0000 		stb %r9,0(%r11)
 405 0348 4E800020 		blr
 406              	.L32:
 407              		.loc 1 204 0
 408 034c 81210008 		lwz %r9,8(%r1)
 409 0350 89290000 		lbz %r9,0(%r9)
 410 0354 2F890000 		cmpwi %cr7,%r9,0
 411 0358 41FE0014 		beq+ %cr7,.L33
 412              		.loc 1 207 0
 413 035c 39200009 		li %r9,9
 414 0360 81410014 		lwz %r10,20(%r1)
 415              	.LVL46:
 416 0364 992A0000 		stb %r9,0(%r10)
 417 0368 4E800020 		blr
 418              	.LVL47:
 419              	.L33:
 420              		.loc 1 214 0
 421 036c 8121000C 		lwz %r9,12(%r1)
 422 0370 89290000 		lbz %r9,0(%r9)
 423 0374 2F890000 		cmpwi %cr7,%r9,0
 424 0378 41FE0014 		beq+ %cr7,.L34
 425              		.loc 1 217 0
 426 037c 3920000A 		li %r9,10
 427 0380 81610014 		lwz %r11,20(%r1)
 428 0384 992B0000 		stb %r9,0(%r11)
 429 0388 4E800020 		blr
 430              	.L34:
 431              		.loc 1 223 0
 432 038c 81210010 		lwz %r9,16(%r1)
 433 0390 89290000 		lbz %r9,0(%r9)
 434 0394 2F890000 		cmpwi %cr7,%r9,0
 435 0398 41FE0014 		beq+ %cr7,.L35
 436              		.loc 1 226 0
 437 039c 3920000B 		li %r9,11
 438 03a0 81410014 		lwz %r10,20(%r1)
 439              	.LVL48:
 440 03a4 992A0000 		stb %r9,0(%r10)
 441 03a8 4E800020 		blr
 442              	.LVL49:
 443              	.L35:
 444              		.loc 1 232 0
 445 03ac 39200000 		li %r9,0
 446 03b0 81610014 		lwz %r11,20(%r1)
 447 03b4 992B0000 		stb %r9,0(%r11)
 448 03b8 4E800020 		blr
 449              		.cfi_endproc
 450              	.LFE1:
 451              		.size	BSC_check_type, .-BSC_check_type
 452              		.align 2
 453              		.globl BSC_Fault_level
 454              		.type	BSC_Fault_level, @function
 455              	BSC_Fault_level:
 456              	.LFB2:
 457              		.loc 1 252 0
 458              		.cfi_startproc
 459              	.LVL50:
 460 03bc 9421FFE8 		stwu %r1,-24(%r1)
 461              	.LCFI2:
 462              		.cfi_def_cfa_offset 24
 463              		.loc 1 260 0
 464 03c0 3D200000 		lis %r9,bscv_MediumFaultType@ha
 465 03c4 88090000 		lbz %r0,bscv_MediumFaultType@l(%r9)
 466 03c8 7C001A78 		xor %r0,%r0,%r3
 467 03cc 7C000034 		cntlzw %r0,%r0
 468 03d0 5400D97E 		srwi %r0,%r0,5
 469              	.LVL51:
 470              		.loc 1 265 0
 471 03d4 39200000 		li %r9,0
 472              		.loc 1 266 0
 473 03d8 3D600000 		lis %r11,bscv_LowFaultType@ha
 474 03dc 38C00000 		li %r6,0
 475 03e0 38E00001 		li %r7,1
 476 03e4 39000007 		li %r8,7
 477 03e8 7D0903A6 		mtctr %r8
 478              	.LVL52:
 479              	.L37:
 480              		.loc 1 266 0 is_stmt 0 discriminator 2
 481 03ec 394B0000 		la %r10,bscv_LowFaultType@l(%r11)
 482 03f0 7D4A48AE 		lbzx %r10,%r10,%r9
 483 03f4 7F8A1800 		cmpw %cr7,%r10,%r3
 484 03f8 7D07379E 		isel %r8,%r7,%r6,30
 485 03fc 39410008 		addi %r10,%r1,8
 486 0400 7D0951AE 		stbx %r8,%r9,%r10
 487              		.loc 1 265 0 is_stmt 1 discriminator 2
 488 0404 39290001 		addi %r9,%r9,1
 489              	.LVL53:
 490 0408 4200FFE4 		bdnz .L37
 491              		.loc 1 275 0
 492 040c 3D200000 		lis %r9,bscv_SevereFaultType@ha
 493              	.LVL54:
 494 0410 89290000 		lbz %r9,bscv_SevereFaultType@l(%r9)
 495 0414 7C694A78 		xor %r9,%r3,%r9
 496 0418 7D290034 		cntlzw %r9,%r9
 497 041c 5529D97E 		srwi %r9,%r9,5
 498 0420 99250000 		stb %r9,0(%r5)
 499              		.loc 1 281 0
 500 0424 3D200000 		lis %r9,bscv_MediumFaultType+1@ha
 501 0428 89290000 		lbz %r9,bscv_MediumFaultType+1@l(%r9)
 502 042c 7D291A78 		xor %r9,%r9,%r3
 503 0430 7D290034 		cntlzw %r9,%r9
 504 0434 5529D97E 		srwi %r9,%r9,5
 505              		.loc 1 260 0
 506 0438 7F804800 		cmpw %cr7,%r0,%r9
 507 043c 39400001 		li %r10,1
 508 0440 7D2A071E 		isel %r9,%r10,%r0,28
 509              	.LVL55:
 510              		.loc 1 285 0
 511 0444 3D400000 		lis %r10,bscv_MediumFaultType+2@ha
 512 0448 894A0000 		lbz %r10,bscv_MediumFaultType+2@l(%r10)
 513 044c 7D431A78 		xor %r3,%r10,%r3
 514              	.LVL56:
 515 0450 7C630034 		cntlzw %r3,%r3
 516 0454 5463D97E 		srwi %r3,%r3,5
 517              		.loc 1 286 0
 518 0458 7F891800 		cmpw %cr7,%r9,%r3
 519 045c 39000001 		li %r8,1
 520 0460 7D284F1E 		isel %r9,%r8,%r9,28
 521              	.LVL57:
 522              		.loc 1 289 0
 523 0464 99250001 		stb %r9,1(%r5)
 524              		.loc 1 294 0
 525 0468 7C2A0B78 		mr %r10,%r1
 526 046c 8D2A0008 		lbzu %r9,8(%r10)
 527              	.LVL58:
 528              		.loc 1 297 0
 529 0470 38E00001 		li %r7,1
 530 0474 39000006 		li %r8,6
 531 0478 7D0903A6 		mtctr %r8
 532              	.LVL59:
 533              	.L41:
 534              		.loc 1 296 0
 535 047c 8D0A0001 		lbzu %r8,1(%r10)
 536              		.loc 1 297 0
 537 0480 7F884840 		cmplw %cr7,%r8,%r9
 538 0484 7D274F5E 		isel %r9,%r7,%r9,29
 539              	.LVL60:
 540              		.loc 1 295 0
 541 0488 4200FFF4 		bdnz .L41
 542              		.loc 1 301 0
 543 048c 99240000 		stb %r9,0(%r4)
 544              		.loc 1 304 0
 545 0490 38210018 		addi %r1,%r1,24
 546              	.LCFI3:
 547              		.cfi_def_cfa_offset 0
 548 0494 4E800020 		blr
 549              		.cfi_endproc
 550              	.LFE2:
 551              		.size	BSC_Fault_level, .-BSC_Fault_level
 552              		.align 2
 553              		.globl BSC_key_cycle_Init
 554              		.type	BSC_key_cycle_Init, @function
 555              	BSC_key_cycle_Init:
 556              	.LFB6:
 557              		.loc 1 538 0
 558              		.cfi_startproc
 559              	.LVL61:
 560              		.loc 1 540 0
 561 0498 39200001 		li %r9,1
 562 049c 99230000 		stb %r9,0(%r3)
 563 04a0 4E800020 		blr
 564              		.cfi_endproc
 565              	.LFE6:
 566              		.size	BSC_key_cycle_Init, .-BSC_key_cycle_Init
 567              		.align 2
 568              		.globl BSC_key_cycle
 569              		.type	BSC_key_cycle, @function
 570              	BSC_key_cycle:
 571              	.LFB7:
 572              		.loc 1 547 0
 573              		.cfi_startproc
 574              	.LVL62:
 575 04a4 9421FFD8 		stwu %r1,-40(%r1)
 576              	.LCFI4:
 577              		.cfi_def_cfa_offset 40
 578 04a8 7C0802A6 		mflr %r0
 579 04ac 9001002C 		stw %r0,44(%r1)
 580 04b0 9321000C 		stw %r25,12(%r1)
 581 04b4 93410010 		stw %r26,16(%r1)
 582 04b8 93610014 		stw %r27,20(%r1)
 583 04bc 93810018 		stw %r28,24(%r1)
 584 04c0 93A1001C 		stw %r29,28(%r1)
 585 04c4 93C10020 		stw %r30,32(%r1)
 586 04c8 93E10024 		stw %r31,36(%r1)
 587              		.cfi_offset 65, 4
 588              		.cfi_offset 25, -28
 589              		.cfi_offset 26, -24
 590              		.cfi_offset 27, -20
 591              		.cfi_offset 28, -16
 592              		.cfi_offset 29, -12
 593              		.cfi_offset 30, -8
 594              		.cfi_offset 31, -4
 595 04cc 7C7B1B78 		mr %r27,%r3
 596 04d0 7C9D2378 		mr %r29,%r4
 597 04d4 7CB92B78 		mr %r25,%r5
 598 04d8 7CDA3378 		mr %r26,%r6
 599 04dc 7CFF3B78 		mr %r31,%r7
 600              		.loc 1 554 0
 601 04e0 89070000 		lbz %r8,0(%r7)
 602 04e4 88E40000 		lbz %r7,0(%r4)
 603              	.LVL63:
 604 04e8 7CE700D0 		neg %r7,%r7
 605 04ec 54E70FFE 		srwi %r7,%r7,31
 606 04f0 69090001 		xori %r9,%r8,1
 607 04f4 7D290034 		cntlzw %r9,%r9
 608 04f8 5529D97E 		srwi %r9,%r9,5
 609              		.loc 1 555 0
 610 04fc 39400000 		li %r10,0
 611 0500 7F874800 		cmpw %cr7,%r7,%r9
 612 0504 41DE0010 		beq- %cr7,.L50
 613              		.loc 1 555 0 is_stmt 0 discriminator 1
 614 0508 690A0003 		xori %r10,%r8,3
 615 050c 7D4A00D0 		neg %r10,%r10
 616 0510 554A0FFE 		srwi %r10,%r10,31
 617              	.L50:
 618              		.loc 1 554 0 is_stmt 1
 619 0514 554A063E 		rlwinm %r10,%r10,0,0xff
 620              	.LVL64:
 621              		.loc 1 556 0
 622 0518 7FDB00D0 		neg %r30,%r27
 623 051c 57DE0FFE 		srwi %r30,%r30,31
 624 0520 57C7063E 		rlwinm %r7,%r30,0,0xff
 625 0524 891F0001 		lbz %r8,1(%r31)
 626 0528 69090001 		xori %r9,%r8,1
 627 052c 7D290034 		cntlzw %r9,%r9
 628 0530 5529D97E 		srwi %r9,%r9,5
 629              		.loc 1 557 0
 630 0534 3B800000 		li %r28,0
 631 0538 7F874800 		cmpw %cr7,%r7,%r9
 632 053c 41DE0010 		beq- %cr7,.L51
 633              		.loc 1 557 0 is_stmt 0 discriminator 1
 634 0540 691C0003 		xori %r28,%r8,3
 635 0544 7F9C00D0 		neg %r28,%r28
 636 0548 579C0FFE 		srwi %r28,%r28,31
 637              	.L51:
 638              		.loc 1 556 0 is_stmt 1
 639 054c 579C063E 		rlwinm %r28,%r28,0,0xff
 640              	.LVL65:
 641              		.loc 1 559 0
 642 0550 7F895379 		or. %r9,%r28,%r10
 643 0554 41C20044 		beq- %cr0,.L52
 644              		.loc 1 561 0
 645 0558 2F8A0000 		cmpwi %cr7,%r10,0
 646 055c 41FE001C 		beq+ %cr7,.L53
 647              		.loc 1 564 0
 648 0560 39200000 		li %r9,0
 649 0564 913A0000 		stw %r9,0(%r26)
 650              		.loc 1 565 0
 651 0568 7F63DB78 		mr %r3,%r27
 652              	.LVL66:
 653 056c 7F24CB78 		mr %r4,%r25
 654              	.LVL67:
 655 0570 7F45D378 		mr %r5,%r26
 656              	.LVL68:
 657 0574 4BFFFB85 		bl BSC_chartstep_c1_BSC
 658              	.LVL69:
 659              	.L53:
 660              		.loc 1 568 0
 661 0578 2F9C0000 		cmpwi %cr7,%r28,0
 662 057c 41FE001C 		beq+ %cr7,.L52
 663              		.loc 1 571 0
 664 0580 39200001 		li %r9,1
 665 0584 913A0000 		stw %r9,0(%r26)
 666              		.loc 1 572 0
 667 0588 7F63DB78 		mr %r3,%r27
 668 058c 7F24CB78 		mr %r4,%r25
 669 0590 7F45D378 		mr %r5,%r26
 670 0594 4BFFFB65 		bl BSC_chartstep_c1_BSC
 671              	.LVL70:
 672              	.L52:
 673              		.loc 1 576 0
 674 0598 893D0000 		lbz %r9,0(%r29)
 675 059c 7D2900D0 		neg %r9,%r9
 676 05a0 55290FFE 		srwi %r9,%r9,31
 677 05a4 993F0000 		stb %r9,0(%r31)
 678              		.loc 1 577 0
 679 05a8 9BDF0001 		stb %r30,1(%r31)
 680              		.loc 1 578 0
 681 05ac 8001002C 		lwz %r0,44(%r1)
 682 05b0 7C0803A6 		mtlr %r0
 683 05b4 8321000C 		lwz %r25,12(%r1)
 684              	.LVL71:
 685 05b8 83410010 		lwz %r26,16(%r1)
 686              	.LVL72:
 687 05bc 83610014 		lwz %r27,20(%r1)
 688 05c0 83810018 		lwz %r28,24(%r1)
 689              	.LVL73:
 690 05c4 83A1001C 		lwz %r29,28(%r1)
 691              	.LVL74:
 692 05c8 83C10020 		lwz %r30,32(%r1)
 693 05cc 83E10024 		lwz %r31,36(%r1)
 694              	.LVL75:
 695 05d0 38210028 		addi %r1,%r1,40
 696              	.LCFI5:
 697              		.cfi_restore 31
 698              		.cfi_restore 30
 699              		.cfi_restore 29
 700              		.cfi_restore 28
 701              		.cfi_restore 27
 702              		.cfi_restore 26
 703              		.cfi_restore 25
 704              		.cfi_restore 65
 705              		.cfi_def_cfa_offset 0
 706 05d4 4E800020 		blr
 707              		.cfi_endproc
 708              	.LFE7:
 709              		.size	BSC_key_cycle, .-BSC_key_cycle
 710              		.align 2
 711              		.globl BSC_sleepCheck
 712              		.type	BSC_sleepCheck, @function
 713              	BSC_sleepCheck:
 714              	.LFB8:
 715              		.loc 1 582 0
 716              		.cfi_startproc
 717              	.LVL76:
 718              		.loc 1 587 0
 719 05d8 89430000 		lbz %r10,0(%r3)
 720 05dc 39200000 		li %r9,0
 721 05e0 2F8A0000 		cmpwi %cr7,%r10,0
 722 05e4 41DE0020 		beq- %cr7,.L58
 723              		.loc 1 587 0 is_stmt 0 discriminator 1
 724 05e8 81040000 		lwz %r8,0(%r4)
 725 05ec 3D4042BE 		lis %r10,0x42be
 726 05f0 138852CC 		efscmpgt %cr7,%r8,%r10
 727 05f4 130852CE 		efscmpeq %cr6,%r8,%r10
 728 05f8 4FBDCB82 		cror 4*%cr7+gt,4*%cr7+gt,4*%cr6+gt
 729 05fc 7D200026 		mfcr %r9
 730 0600 5529F7FE 		rlwinm %r9,%r9,30,31,31
 731              	.L58:
 732              		.loc 1 587 0 discriminator 4
 733 0604 99250000 		stb %r9,0(%r5)
 734 0608 4E800020 		blr
 735              		.cfi_endproc
 736              	.LFE8:
 737              		.size	BSC_sleepCheck, .-BSC_sleepCheck
 738              		.align 2
 739              		.globl BSC_cc_cmd
 740              		.type	BSC_cc_cmd, @function
 741              	BSC_cc_cmd:
 742              	.LFB9:
 743              		.loc 1 594 0 is_stmt 1
 744              		.cfi_startproc
 745              	.LVL77:
 746              		.loc 1 600 0
 747 060c 89460000 		lbz %r10,0(%r6)
 748 0610 2F8A0000 		cmpwi %cr7,%r10,0
 749 0614 41DE0018 		beq- %cr7,.L61
 750              		.loc 1 599 0
 751 0618 2F840000 		cmpwi %cr7,%r4,0
 752 061c 41DE0074 		beq- %cr7,.L62
 753              		.loc 1 600 0
 754 0620 7CEA2B79 		or. %r10,%r7,%r5
 755 0624 41C2003C 		beq- %cr0,.L63
 756 0628 48000050 		b .L69
 757              	.L61:
 758              		.loc 1 599 0
 759 062c 39400000 		li %r10,0
 760 0630 99490000 		stb %r10,0(%r9)
 761              		.loc 1 605 0
 762 0634 89230000 		lbz %r9,0(%r3)
 763              	.LVL78:
 764 0638 2F890000 		cmpwi %cr7,%r9,0
 765 063c 41DE0018 		beq- %cr7,.L65
 766              		.loc 1 605 0 is_stmt 0 discriminator 1
 767 0640 2F840000 		cmpwi %cr7,%r4,0
 768 0644 41DE0010 		beq- %cr7,.L65
 769              	.L67:
 770 0648 39200001 		li %r9,1
 771 064c 2F850000 		cmpwi %cr7,%r5,0
 772 0650 41DE0008 		beq- %cr7,.L66
 773              	.L65:
 774              		.loc 1 605 0 discriminator 2
 775 0654 39200000 		li %r9,0
 776              	.L66:
 777              		.loc 1 605 0 discriminator 4
 778 0658 99280000 		stb %r9,0(%r8)
 779 065c 4E800020 		blr
 780              	.LVL79:
 781              	.L63:
 782              		.loc 1 599 0 is_stmt 1
 783 0660 39400001 		li %r10,1
 784 0664 99490000 		stb %r10,0(%r9)
 785              		.loc 1 605 0
 786 0668 89230000 		lbz %r9,0(%r3)
 787              	.LVL80:
 788 066c 2F890000 		cmpwi %cr7,%r9,0
 789 0670 40DEFFD8 		bne- %cr7,.L67
 790 0674 4BFFFFE0 		b .L65
 791              	.LVL81:
 792              	.L69:
 793              		.loc 1 599 0
 794 0678 39400000 		li %r10,0
 795 067c 99490000 		stb %r10,0(%r9)
 796              		.loc 1 605 0
 797 0680 89230000 		lbz %r9,0(%r3)
 798              	.LVL82:
 799 0684 2F890000 		cmpwi %cr7,%r9,0
 800 0688 40DEFFC0 		bne- %cr7,.L67
 801 068c 4BFFFFC8 		b .L65
 802              	.LVL83:
 803              	.L62:
 804              		.loc 1 599 0
 805 0690 39400000 		li %r10,0
 806 0694 99490000 		stb %r10,0(%r9)
 807 0698 4BFFFFBC 		b .L65
 808              		.cfi_endproc
 809              	.LFE9:
 810              		.size	BSC_cc_cmd, .-BSC_cc_cmd
 811              		.align 2
 812              		.globl BSC_rsnToOpenCC
 813              		.type	BSC_rsnToOpenCC, @function
 814              	BSC_rsnToOpenCC:
 815              	.LFB10:
 816              		.loc 1 614 0
 817              		.cfi_startproc
 818              	.LVL84:
 819              		.loc 1 616 0
 820 069c 7CA52214 		add %r5,%r5,%r4
 821              	.LVL85:
 822 06a0 54A5063E 		rlwinm %r5,%r5,0,0xff
 823 06a4 98A80000 		stb %r5,0(%r8)
 824              		.loc 1 621 0
 825 06a8 7C6300D0 		neg %r3,%r3
 826              	.LVL86:
 827 06ac 54630FFE 		srwi %r3,%r3,31
 828 06b0 5464063E 		rlwinm %r4,%r3,0,0xff
 829              	.LVL87:
 830 06b4 89090000 		lbz %r8,0(%r9)
 831              	.LVL88:
 832 06b8 690A0001 		xori %r10,%r8,1
 833 06bc 7D4A0034 		cntlzw %r10,%r10
 834 06c0 554AD97E 		srwi %r10,%r10,5
 835 06c4 7F845000 		cmpw %cr7,%r4,%r10
 836 06c8 41DE0024 		beq- %cr7,.L72
 837              		.loc 1 622 0
 838 06cc 2F880003 		cmpwi %cr7,%r8,3
 839 06d0 41DE001C 		beq- %cr7,.L72
 840              		.loc 1 629 0
 841 06d4 2F850000 		cmpwi %cr7,%r5,0
 842 06d8 41FE000C 		beq+ %cr7,.L73
 843              		.loc 1 633 0
 844 06dc 98C70000 		stb %r6,0(%r7)
 845 06e0 4800000C 		b .L72
 846              	.L73:
 847              		.loc 1 643 0
 848 06e4 39400000 		li %r10,0
 849 06e8 99470000 		stb %r10,0(%r7)
 850              	.L72:
 851              		.loc 1 652 0
 852 06ec 98690000 		stb %r3,0(%r9)
 853 06f0 4E800020 		blr
 854              		.cfi_endproc
 855              	.LFE10:
 856              		.size	BSC_rsnToOpenCC, .-BSC_rsnToOpenCC
 857              		.align 2
 858              		.globl BSC_Init
 859              		.type	BSC_Init, @function
 860              	BSC_Init:
 861              	.LFB11:
 862              		.loc 1 659 0
 863              		.cfi_startproc
 864              	.LVL89:
 865 06f4 9421FFF0 		stwu %r1,-16(%r1)
 866              	.LCFI6:
 867              		.cfi_def_cfa_offset 16
 868 06f8 7C0802A6 		mflr %r0
 869 06fc 90010014 		stw %r0,20(%r1)
 870 0700 93E1000C 		stw %r31,12(%r1)
 871              		.cfi_offset 65, 4
 872              		.cfi_offset 31, -4
 873 0704 7C9F2378 		mr %r31,%r4
 874              		.loc 1 665 0
 875 0708 48000001 		bl BSC_check_type_Init
 876              	.LVL90:
 877              		.loc 1 670 0
 878 070c 7FE3FB78 		mr %r3,%r31
 879 0710 48000001 		bl BSC_key_cycle_Init
 880              	.LVL91:
 881              		.loc 1 673 0
 882 0714 80010014 		lwz %r0,20(%r1)
 883 0718 7C0803A6 		mtlr %r0
 884 071c 83E1000C 		lwz %r31,12(%r1)
 885              	.LVL92:
 886 0720 38210010 		addi %r1,%r1,16
 887              	.LCFI7:
 888              		.cfi_restore 31
 889              		.cfi_restore 65
 890              		.cfi_def_cfa_offset 0
 891 0724 4E800020 		blr
 892              		.cfi_endproc
 893              	.LFE11:
 894              		.size	BSC_Init, .-BSC_Init
 895              		.align 2
 896              		.globl BSC
 897              		.type	BSC, @function
 898              	BSC:
 899              	.LFB12:
 900              		.loc 1 690 0
 901              		.cfi_startproc
 902              	.LVL93:
 903 0728 9421FFB8 		stwu %r1,-72(%r1)
 904              	.LCFI8:
 905              		.cfi_def_cfa_offset 72
 906 072c 7C0802A6 		mflr %r0
 907 0730 9001004C 		stw %r0,76(%r1)
 908 0734 92A1001C 		stw %r21,28(%r1)
 909 0738 92C10020 		stw %r22,32(%r1)
 910 073c 92E10024 		stw %r23,36(%r1)
 911 0740 93010028 		stw %r24,40(%r1)
 912 0744 9321002C 		stw %r25,44(%r1)
 913 0748 93410030 		stw %r26,48(%r1)
 914 074c 93610034 		stw %r27,52(%r1)
 915 0750 93810038 		stw %r28,56(%r1)
 916 0754 93A1003C 		stw %r29,60(%r1)
 917 0758 93C10040 		stw %r30,64(%r1)
 918 075c 93E10044 		stw %r31,68(%r1)
 919              		.cfi_offset 65, 4
 920              		.cfi_offset 21, -44
 921              		.cfi_offset 22, -40
 922              		.cfi_offset 23, -36
 923              		.cfi_offset 24, -32
 924              		.cfi_offset 25, -28
 925              		.cfi_offset 26, -24
 926              		.cfi_offset 27, -20
 927              		.cfi_offset 28, -16
 928              		.cfi_offset 29, -12
 929              		.cfi_offset 30, -8
 930              		.cfi_offset 31, -4
 931 0760 7C7B1B78 		mr %r27,%r3
 932 0764 7C9C2378 		mr %r28,%r4
 933 0768 7CB72B78 		mr %r23,%r5
 934 076c 7CD83378 		mr %r24,%r6
 935 0770 7CE33B78 		mr %r3,%r7
 936              	.LVL94:
 937 0774 7D044378 		mr %r4,%r8
 938              	.LVL95:
 939 0778 7D254B78 		mr %r5,%r9
 940              	.LVL96:
 941 077c 7D465378 		mr %r6,%r10
 942              	.LVL97:
 943 0780 80E10050 		lwz %r7,80(%r1)
 944              	.LVL98:
 945 0784 81010054 		lwz %r8,84(%r1)
 946              	.LVL99:
 947 0788 81210058 		lwz %r9,88(%r1)
 948              	.LVL100:
 949 078c 8141005C 		lwz %r10,92(%r1)
 950              	.LVL101:
 951 0790 81810060 		lwz %r12,96(%r1)
 952 0794 80010064 		lwz %r0,100(%r1)
 953 0798 81610068 		lwz %r11,104(%r1)
 954 079c 83210078 		lwz %r25,120(%r1)
 955 07a0 83C10088 		lwz %r30,136(%r1)
 956 07a4 83E1008C 		lwz %r31,140(%r1)
 957 07a8 83A10090 		lwz %r29,144(%r1)
 958 07ac 83410094 		lwz %r26,148(%r1)
 959              		.loc 1 695 0
 960 07b0 82DD0000 		lwz %r22,0(%r29)
 961 07b4 2F960000 		cmpwi %cr7,%r22,0
 962 07b8 41DC00A8 		blt- %cr7,.L77
 963              		.loc 1 697 0
 964 07bc 8ADD0000 		lbz %r22,0(%r29)
 965 07c0 3AA0FF80 		li %r21,-128
 966 07c4 7ED6AB78 		or %r22,%r22,%r21
 967              		.loc 1 700 0
 968 07c8 62D60040 		ori %r22,%r22,64
 969 07cc 9ADD0000 		stb %r22,0(%r29)
 970              		.loc 1 708 0
 971 07d0 91810008 		stw %r12,8(%r1)
 972 07d4 9001000C 		stw %r0,12(%r1)
 973 07d8 91610010 		stw %r11,16(%r1)
 974 07dc 93C10014 		stw %r30,20(%r1)
 975 07e0 48000001 		bl BSC_check_type
 976              	.LVL102:
 977              		.loc 1 723 0
 978 07e4 887E0000 		lbz %r3,0(%r30)
 979 07e8 80810084 		lwz %r4,132(%r1)
 980 07ec 38BF0001 		addi %r5,%r31,1
 981 07f0 48000001 		bl BSC_Fault_level
 982              	.LVL103:
 983              		.loc 1 731 0
 984 07f4 887F0002 		lbz %r3,2(%r31)
 985 07f8 7EE4BB78 		mr %r4,%r23
 986 07fc 7FE5FB78 		mr %r5,%r31
 987 0800 38DD0004 		addi %r6,%r29,4
 988 0804 38FA0001 		addi %r7,%r26,1
 989 0808 48000001 		bl BSC_key_cycle
 990              	.LVL104:
 991              		.loc 1 740 0
 992 080c 7F83E378 		mr %r3,%r28
 993 0810 7F04C378 		mr %r4,%r24
 994 0814 7F25CB78 		mr %r5,%r25
 995 0818 48000001 		bl BSC_sleepCheck
 996              	.LVL105:
 997              		.loc 1 748 0
 998 081c 7F63DB78 		mr %r3,%r27
 999 0820 889F0000 		lbz %r4,0(%r31)
 1000 0824 88BF0001 		lbz %r5,1(%r31)
 1001 0828 7F86E378 		mr %r6,%r28
 1002 082c 88F90000 		lbz %r7,0(%r25)
 1003 0830 81010070 		lwz %r8,112(%r1)
 1004 0834 81210074 		lwz %r9,116(%r1)
 1005 0838 48000001 		bl BSC_cc_cmd
 1006              	.LVL106:
 1007              		.loc 1 758 0
 1008 083c 887F0000 		lbz %r3,0(%r31)
 1009 0840 889F0001 		lbz %r4,1(%r31)
 1010 0844 88BF0002 		lbz %r5,2(%r31)
 1011 0848 88DE0000 		lbz %r6,0(%r30)
 1012 084c 80E1007C 		lwz %r7,124(%r1)
 1013 0850 81010080 		lwz %r8,128(%r1)
 1014 0854 7F49D378 		mr %r9,%r26
 1015 0858 48000001 		bl BSC_rsnToOpenCC
 1016              	.LVL107:
 1017 085c 48000090 		b .L78
 1018              	.LVL108:
 1019              	.L77:
 1020              		.loc 1 771 0
 1021 0860 91810008 		stw %r12,8(%r1)
 1022 0864 9001000C 		stw %r0,12(%r1)
 1023 0868 91610010 		stw %r11,16(%r1)
 1024 086c 93C10014 		stw %r30,20(%r1)
 1025 0870 48000001 		bl BSC_check_type
 1026              	.LVL109:
 1027              		.loc 1 786 0
 1028 0874 887E0000 		lbz %r3,0(%r30)
 1029 0878 80810084 		lwz %r4,132(%r1)
 1030 087c 38BF0001 		addi %r5,%r31,1
 1031 0880 48000001 		bl BSC_Fault_level
 1032              	.LVL110:
 1033              		.loc 1 794 0
 1034 0884 887F0002 		lbz %r3,2(%r31)
 1035 0888 7EE4BB78 		mr %r4,%r23
 1036 088c 7FE5FB78 		mr %r5,%r31
 1037 0890 38DD0004 		addi %r6,%r29,4
 1038 0894 38FA0001 		addi %r7,%r26,1
 1039 0898 48000001 		bl BSC_key_cycle
 1040              	.LVL111:
 1041              		.loc 1 803 0
 1042 089c 7F83E378 		mr %r3,%r28
 1043 08a0 7F04C378 		mr %r4,%r24
 1044 08a4 7F25CB78 		mr %r5,%r25
 1045 08a8 48000001 		bl BSC_sleepCheck
 1046              	.LVL112:
 1047              		.loc 1 811 0
 1048 08ac 7F63DB78 		mr %r3,%r27
 1049 08b0 889F0000 		lbz %r4,0(%r31)
 1050 08b4 88BF0001 		lbz %r5,1(%r31)
 1051 08b8 7F86E378 		mr %r6,%r28
 1052 08bc 88F90000 		lbz %r7,0(%r25)
 1053 08c0 81010070 		lwz %r8,112(%r1)
 1054 08c4 81210074 		lwz %r9,116(%r1)
 1055 08c8 48000001 		bl BSC_cc_cmd
 1056              	.LVL113:
 1057              		.loc 1 821 0
 1058 08cc 887F0000 		lbz %r3,0(%r31)
 1059 08d0 889F0001 		lbz %r4,1(%r31)
 1060 08d4 88BF0002 		lbz %r5,2(%r31)
 1061 08d8 88DE0000 		lbz %r6,0(%r30)
 1062 08dc 80E1007C 		lwz %r7,124(%r1)
 1063 08e0 81010080 		lwz %r8,128(%r1)
 1064 08e4 7F49D378 		mr %r9,%r26
 1065 08e8 48000001 		bl BSC_rsnToOpenCC
 1066              	.LVL114:
 1067              	.L78:
 1068              		.loc 1 832 0
 1069 08ec 895B0000 		lbz %r10,0(%r27)
 1070 08f0 39200001 		li %r9,1
 1071 08f4 2F8A0000 		cmpwi %cr7,%r10,0
 1072 08f8 40DE0010 		bne- %cr7,.L79
 1073              		.loc 1 832 0 is_stmt 0 discriminator 2
 1074 08fc 893C0000 		lbz %r9,0(%r28)
 1075 0900 7D2900D0 		neg %r9,%r9
 1076 0904 55290FFE 		srwi %r9,%r9,31
 1077              	.L79:
 1078              		.loc 1 832 0 discriminator 4
 1079 0908 8141006C 		lwz %r10,108(%r1)
 1080 090c 992A0000 		stb %r9,0(%r10)
 1081              		.loc 1 836 0 is_stmt 1 discriminator 4
 1082 0910 8001004C 		lwz %r0,76(%r1)
 1083 0914 7C0803A6 		mtlr %r0
 1084 0918 82A1001C 		lwz %r21,28(%r1)
 1085 091c 82C10020 		lwz %r22,32(%r1)
 1086 0920 82E10024 		lwz %r23,36(%r1)
 1087              	.LVL115:
 1088 0924 83010028 		lwz %r24,40(%r1)
 1089              	.LVL116:
 1090 0928 8321002C 		lwz %r25,44(%r1)
 1091 092c 83410030 		lwz %r26,48(%r1)
 1092 0930 83610034 		lwz %r27,52(%r1)
 1093              	.LVL117:
 1094 0934 83810038 		lwz %r28,56(%r1)
 1095              	.LVL118:
 1096 0938 83A1003C 		lwz %r29,60(%r1)
 1097 093c 83C10040 		lwz %r30,64(%r1)
 1098 0940 83E10044 		lwz %r31,68(%r1)
 1099 0944 38210048 		addi %r1,%r1,72
 1100              	.LCFI9:
 1101              		.cfi_restore 31
 1102              		.cfi_restore 30
 1103              		.cfi_restore 29
 1104              		.cfi_restore 28
 1105              		.cfi_restore 27
 1106              		.cfi_restore 26
 1107              		.cfi_restore 25
 1108              		.cfi_restore 24
 1109              		.cfi_restore 23
 1110              		.cfi_restore 22
 1111              		.cfi_restore 21
 1112              		.cfi_restore 65
 1113              		.cfi_def_cfa_offset 0
 1114 0948 4E800020 		blr
 1115              		.cfi_endproc
 1116              	.LFE12:
 1117              		.size	BSC, .-BSC
 1118              		.align 2
 1119              		.globl BSC_initialize
 1120              		.type	BSC_initialize, @function
 1121              	BSC_initialize:
 1122              	.LFB13:
 1123              		.loc 1 841 0
 1124              		.cfi_startproc
 1125              	.LVL119:
 1126              		.loc 1 845 0
 1127 094c 90640000 		stw %r3,0(%r4)
 1128              		.loc 1 846 0
 1129 0950 39200003 		li %r9,3
 1130 0954 99250000 		stb %r9,0(%r5)
 1131              		.loc 1 847 0
 1132 0958 99250001 		stb %r9,1(%r5)
 1133              		.loc 1 848 0
 1134 095c 99250002 		stb %r9,2(%r5)
 1135 0960 4E800020 		blr
 1136              		.cfi_endproc
 1137              	.LFE13:
 1138              		.size	BSC_initialize, .-BSC_initialize
 1139              	.Letext0:
 1140              		.file 2 "c:/openecu/platform/2_8_0_r2019-1/openecu/../targets/M110/M110_000/mpc5534_lib/include/ps
 1141              		.file 3 "../../../slprj/openecu_ert/_sharedutils/rtwtypes.h"
 1142              		.file 4 "../../../slprj/openecu_ert/_sharedutils/zero_crossing_types.h"
 1143              		.file 5 "BSC_types.h"
 1144              		.file 6 "BSC.h"
 1145              		.file 7 "../../../slprj/openecu_ert/_sharedutils/global.h"