   1              		.file	"BTC.c"
   2              		.section	".text"
   3              	.Ltext0:
   4              		.cfi_sections	.debug_frame
   5              		.align 2
   6              		.globl BTC_Init
   7              		.type	BTC_Init, @function
   8              	BTC_Init:
   9              	.LFB0:
  10              		.file 1 "BTC.c"
  11              		.loc 1 54 0
  12              		.cfi_startproc
  13              	.LVL0:
  14              		.loc 1 57 0
  15 0000 3D2041D0 		lis %r9,0x41d0
  16 0004 91230000 		stw %r9,0(%r3)
  17 0008 4E800020 		blr
  18              		.cfi_endproc
  19              	.LFE0:
  20              		.size	BTC_Init, .-BTC_Init
  21              		.globl __extendsfdf2
  22              		.globl __muldf3
  23              		.globl __adddf3
  24              		.globl __truncdfsf2
  25              		.align 2
  26              		.globl BTC
  27              		.type	BTC, @function
  28              	BTC:
  29              	.LFB1:
  30              		.loc 1 72 0
  31              		.cfi_startproc
  32              	.LVL1:
  33 000c 9421FFB0 		stwu %r1,-80(%r1)
  34              	.LCFI0:
  35              		.cfi_def_cfa_offset 80
  36 0010 7C0802A6 		mflr %r0
  37 0014 90010054 		stw %r0,84(%r1)
  38 0018 91E1000C 		stw %r15,12(%r1)
  39 001c 92010010 		stw %r16,16(%r1)
  40 0020 92210014 		stw %r17,20(%r1)
  41 0024 92410018 		stw %r18,24(%r1)
  42 0028 9261001C 		stw %r19,28(%r1)
  43 002c 92810020 		stw %r20,32(%r1)
  44 0030 92A10024 		stw %r21,36(%r1)
  45 0034 92C10028 		stw %r22,40(%r1)
  46 0038 92E1002C 		stw %r23,44(%r1)
  47 003c 93010030 		stw %r24,48(%r1)
  48 0040 93210034 		stw %r25,52(%r1)
  49 0044 93410038 		stw %r26,56(%r1)
  50 0048 9361003C 		stw %r27,60(%r1)
  51 004c 93810040 		stw %r28,64(%r1)
  52 0050 93A10044 		stw %r29,68(%r1)
  53 0054 93C10048 		stw %r30,72(%r1)
  54 0058 93E1004C 		stw %r31,76(%r1)
  55              		.cfi_offset 65, 4
  56              		.cfi_offset 15, -68
  57              		.cfi_offset 16, -64
  58              		.cfi_offset 17, -60
  59              		.cfi_offset 18, -56
  60              		.cfi_offset 19, -52
  61              		.cfi_offset 20, -48
  62              		.cfi_offset 21, -44
  63              		.cfi_offset 22, -40
  64              		.cfi_offset 23, -36
  65              		.cfi_offset 24, -32
  66              		.cfi_offset 25, -28
  67              		.cfi_offset 26, -24
  68              		.cfi_offset 27, -20
  69              		.cfi_offset 28, -16
  70              		.cfi_offset 29, -12
  71              		.cfi_offset 30, -8
  72              		.cfi_offset 31, -4
  73 005c 7C791B78 		mr %r25,%r3
  74 0060 7CB32B78 		mr %r19,%r5
  75 0064 7CD03378 		mr %r16,%r6
  76 0068 7CEF3B78 		mr %r15,%r7
  77 006c 7D154378 		mr %r21,%r8
  78 0070 7D324B78 		mr %r18,%r9
  79 0074 7D515378 		mr %r17,%r10
  80 0078 82E10060 		lwz %r23,96(%r1)
  81 007c 83010070 		lwz %r24,112(%r1)
  82              		.loc 1 82 0
  83 0080 83830000 		lwz %r28,0(%r3)
  84              	.LVL2:
  85              		.loc 1 85 0
  86 0084 83440000 		lwz %r26,0(%r4)
  87              	.LVL3:
  88 0088 7C7B1B78 		mr %r27,%r3
  89 008c 7C9E2378 		mr %r30,%r4
  90 0090 7C7F1B78 		mr %r31,%r3
  91 0094 3BA00027 		li %r29,39
  92              	.LVL4:
  93              	.L5:
  94 0098 3BFF0004 		addi %r31,%r31,4
  95              		.loc 1 88 0
  96 009c 807F0000 		lwz %r3,0(%r31)
  97 00a0 1383E2CD 		efscmplt %cr7,%r3,%r28
  98 00a4 1303E2CE 		efscmpeq %cr6,%r3,%r28
  99 00a8 4FBDCB82 		cror 4*%cr7+gt,4*%cr7+gt,4*%cr6+gt
 100 00ac 41FD0014 		bgt+ %cr7,.L3
 101              		.loc 1 89 0 discriminator 1
 102 00b0 48000001 		bl rtIsNaN
 103              	.LVL5:
 104              		.loc 1 88 0 discriminator 1
 105 00b4 2F830000 		cmpwi %cr7,%r3,0
 106 00b8 40DE0008 		bne- %cr7,.L3
 107              		.loc 1 90 0
 108 00bc 839F0000 		lwz %r28,0(%r31)
 109              	.LVL6:
 110              	.L3:
 111 00c0 3BDE0004 		addi %r30,%r30,4
 112              		.loc 1 94 0
 113 00c4 807E0000 		lwz %r3,0(%r30)
 114 00c8 1383D2CC 		efscmpgt %cr7,%r3,%r26
 115 00cc 1303D2CE 		efscmpeq %cr6,%r3,%r26
 116 00d0 4FBDCB82 		cror 4*%cr7+gt,4*%cr7+gt,4*%cr6+gt
 117 00d4 41FD0014 		bgt+ %cr7,.L4
 118              		.loc 1 94 0 is_stmt 0 discriminator 1
 119 00d8 48000001 		bl rtIsNaN
 120              	.LVL7:
 121 00dc 2F830000 		cmpwi %cr7,%r3,0
 122 00e0 40DE0008 		bne- %cr7,.L4
 123              		.loc 1 96 0 is_stmt 1
 124 00e4 835E0000 		lwz %r26,0(%r30)
 125              	.LVL8:
 126              	.L4:
 127              		.loc 1 86 0
 128 00e8 37BDFFFF 		addic. %r29,%r29,-1
 129 00ec 40E2FFAC 		bne+ %cr0,.L5
 130              		.loc 1 104 0
 131 00f0 3D200000 		lis %r9,btcc_full_soc@ha
 132 00f4 81290000 		lwz %r9,btcc_full_soc@l(%r9)
 133 00f8 139A4ACC 		efscmpgt %cr7,%r26,%r9
 134 00fc 131A4ACE 		efscmpeq %cr6,%r26,%r9
 135 0100 4FBDCB82 		cror 4*%cr7+gt,4*%cr7+gt,4*%cr6+gt
 136 0104 7E800026 		mfcr %r20
 137 0108 5694F7FE 		rlwinm %r20,%r20,30,31,31
 138 010c 5694063E 		rlwinm %r20,%r20,0,0xff
 139              	.LVL9:
 140              		.loc 1 114 0
 141 0110 3D200000 		lis %r9,btcc_max_temp_highth@ha
 142 0114 81290000 		lwz %r9,btcc_max_temp_highth@l(%r9)
 143 0118 1389E2CD 		efscmplt %cr7,%r9,%r28
 144 011c 1309E2CE 		efscmpeq %cr6,%r9,%r28
 145 0120 4FBDCB82 		cror 4*%cr7+gt,4*%cr7+gt,4*%cr6+gt
 146 0124 41DD0040 		bgt- %cr7,.L32
 147              		.loc 1 114 0 is_stmt 0 discriminator 2
 148 0128 3AC00000 		li %r22,0
 149 012c 2F940000 		cmpwi %cr7,%r20,0
 150 0130 41DE0038 		beq- %cr7,.L6
 151              		.loc 1 115 0 is_stmt 1
 152 0134 89330000 		lbz %r9,0(%r19)
 153 0138 2F890000 		cmpwi %cr7,%r9,0
 154 013c 41DE002C 		beq- %cr7,.L6
 155              		.loc 1 116 0 discriminator 1
 156 0140 3D200000 		lis %r9,btcc_ambient_temp_lowth@ha
 157 0144 81290000 		lwz %r9,btcc_ambient_temp_lowth@l(%r9)
 158              		.loc 1 115 0 discriminator 1
 159 0148 81500000 		lwz %r10,0(%r16)
 160 014c 138A4ACD 		efscmplt %cr7,%r10,%r9
 161 0150 130A4ACE 		efscmpeq %cr6,%r10,%r9
 162 0154 4FBDCB82 		cror 4*%cr7+gt,4*%cr7+gt,4*%cr6+gt
 163 0158 7EC00026 		mfcr %r22
 164 015c 56D6F7FE 		rlwinm %r22,%r22,30,31,31
 165 0160 48000008 		b .L6
 166              	.L32:
 167              		.loc 1 114 0
 168 0164 3AC00001 		li %r22,1
 169              	.L6:
 170              		.loc 1 114 0 is_stmt 0 discriminator 4
 171 0168 56D6063E 		rlwinm %r22,%r22,0,0xff
 172              	.LVL10:
 173              		.loc 1 119 0 is_stmt 1 discriminator 4
 174 016c 83B90000 		lwz %r29,0(%r25)
 175              	.LVL11:
 176 0170 7F3FCB78 		mr %r31,%r25
 177 0174 3BC00027 		li %r30,39
 178              	.LVL12:
 179              	.L8:
 180 0178 3BFF0004 		addi %r31,%r31,4
 181              		.loc 1 121 0
 182 017c 807F0000 		lwz %r3,0(%r31)
 183 0180 1383EACC 		efscmpgt %cr7,%r3,%r29
 184 0184 1303EACE 		efscmpeq %cr6,%r3,%r29
 185 0188 4FBDCB82 		cror 4*%cr7+gt,4*%cr7+gt,4*%cr6+gt
 186 018c 41FD0014 		bgt+ %cr7,.L7
 187              		.loc 1 122 0 discriminator 1
 188 0190 48000001 		bl rtIsNaN
 189              	.LVL13:
 190              		.loc 1 121 0 discriminator 1
 191 0194 2F830000 		cmpwi %cr7,%r3,0
 192 0198 40DE0008 		bne- %cr7,.L7
 193              		.loc 1 123 0
 194 019c 83BF0000 		lwz %r29,0(%r31)
 195              	.LVL14:
 196              	.L7:
 197              		.loc 1 120 0
 198 01a0 37DEFFFF 		addic. %r30,%r30,-1
 199 01a4 40E2FFD4 		bne+ %cr0,.L8
 200              		.loc 1 135 0
 201 01a8 3D200000 		lis %r9,btcc_min_temp_lowth@ha
 202 01ac 81290000 		lwz %r9,btcc_min_temp_lowth@l(%r9)
 203 01b0 1389EACC 		efscmpgt %cr7,%r9,%r29
 204 01b4 1309EACE 		efscmpeq %cr6,%r9,%r29
 205 01b8 4FBDCB82 		cror 4*%cr7+gt,4*%cr7+gt,4*%cr6+gt
 206 01bc 41DD02C0 		bgt- %cr7,.L9
 207              		.loc 1 135 0 is_stmt 0 discriminator 2
 208 01c0 2F940000 		cmpwi %cr7,%r20,0
 209 01c4 41DE02E8 		beq- %cr7,.L10
 210              		.loc 1 136 0 is_stmt 1
 211 01c8 89330000 		lbz %r9,0(%r19)
 212 01cc 2F890000 		cmpwi %cr7,%r9,0
 213 01d0 41DE02DC 		beq- %cr7,.L10
 214              		.loc 1 137 0 discriminator 1
 215 01d4 3D200000 		lis %r9,btcc_ambient_temp_highth@ha
 216 01d8 81290000 		lwz %r9,btcc_ambient_temp_highth@l(%r9)
 217              		.loc 1 136 0 discriminator 1
 218 01dc 81500000 		lwz %r10,0(%r16)
 219 01e0 138A4ACC 		efscmpgt %cr7,%r10,%r9
 220 01e4 130A4ACE 		efscmpeq %cr6,%r10,%r9
 221 01e8 4FBDCB82 		cror 4*%cr7+gt,4*%cr7+gt,4*%cr6+gt
 222 01ec 41DD0290 		bgt- %cr7,.L9
 223 01f0 480002BC 		b .L10
 224              	.LVL15:
 225              	.L39:
 226              		.loc 1 135 0
 227 01f4 3A000001 		li %r16,1
 228              	.LVL16:
 229 01f8 48000008 		b .L28
 230              	.LVL17:
 231              	.L40:
 232 01fc 3A000000 		li %r16,0
 233              	.LVL18:
 234              	.L28:
 235              		.loc 1 154 0
 236 0200 3D200000 		lis %r9,btcc_max_temp_lowth@ha
 237 0204 81290000 		lwz %r9,btcc_max_temp_lowth@l(%r9)
 238 0208 91370000 		stw %r9,0(%r23)
 239 020c 48000064 		b .L11
 240              	.LVL19:
 241              	.L49:
 242              		.loc 1 160 0
 243 0210 3D200000 		lis %r9,btcc_min_temp_highth@ha
 244 0214 81290000 		lwz %r9,btcc_min_temp_highth@l(%r9)
 245              	.LVL20:
 246              		.loc 1 135 0
 247 0218 3A000001 		li %r16,1
 248              	.LVL21:
 249 021c 48000050 		b .L12
 250              	.LVL22:
 251              	.L50:
 252              		.loc 1 161 0
 253 0220 2F9D0000 		cmpwi %cr7,%r29,0
 254 0224 41DE0040 		beq- %cr7,.L13
 255              		.loc 1 166 0
 256 0228 81390000 		lwz %r9,0(%r25)
 257              	.LVL23:
 258 022c 7F2ACB78 		mr %r10,%r25
 259              		.loc 1 167 0
 260 0230 39000027 		li %r8,39
 261 0234 7D0903A6 		mtctr %r8
 262              	.LVL24:
 263              	.L14:
 264              		.loc 1 168 0 discriminator 2
 265 0238 850A0004 		lwzu %r8,4(%r10)
 266 023c 112942C0 		efsadd %r9,%r9,%r8
 267              	.LVL25:
 268              		.loc 1 167 0 discriminator 2
 269 0240 4200FFF8 		bdnz .L14
 270              		.loc 1 180 0
 271 0244 3D400000 		lis %r10,btcc_pack_in_parallel@ha
 272 0248 814A0000 		lwz %r10,btcc_pack_in_parallel@l(%r10)
 273 024c 112952C9 		efsdiv %r9,%r9,%r10
 274              	.LVL26:
 275 0250 3D400000 		lis %r10,btcc_number_in_series@ha
 276 0254 814A0000 		lwz %r10,btcc_number_in_series@l(%r10)
 277 0258 112952C9 		efsdiv %r9,%r9,%r10
 278              	.LVL27:
 279              		.loc 1 135 0
 280 025c 3A000000 		li %r16,0
 281              	.LVL28:
 282 0260 4800000C 		b .L12
 283              	.LVL29:
 284              	.L13:
 285              		.loc 1 186 0
 286 0264 81380000 		lwz %r9,0(%r24)
 287              	.LVL30:
 288              		.loc 1 135 0
 289 0268 3A000000 		li %r16,0
 290              	.LVL31:
 291              	.L12:
 292              		.loc 1 189 0
 293 026c 91370000 		stw %r9,0(%r23)
 294              	.LVL32:
 295              	.L11:
 296              		.loc 1 195 0
 297 0270 83590000 		lwz %r26,0(%r25)
 298              	.LVL33:
 299 0274 7F3FCB78 		mr %r31,%r25
 300 0278 3BC00027 		li %r30,39
 301              	.LVL34:
 302              	.L16:
 303 027c 3BFF0004 		addi %r31,%r31,4
 304              		.loc 1 197 0
 305 0280 807F0000 		lwz %r3,0(%r31)
 306 0284 1383D2CC 		efscmpgt %cr7,%r3,%r26
 307 0288 1303D2CE 		efscmpeq %cr6,%r3,%r26
 308 028c 4FBDCB82 		cror 4*%cr7+gt,4*%cr7+gt,4*%cr6+gt
 309 0290 41FD0014 		bgt+ %cr7,.L15
 310              		.loc 1 198 0 discriminator 1
 311 0294 48000001 		bl rtIsNaN
 312              	.LVL35:
 313              		.loc 1 197 0 discriminator 1
 314 0298 2F830000 		cmpwi %cr7,%r3,0
 315 029c 40DE0008 		bne- %cr7,.L15
 316              		.loc 1 199 0
 317 02a0 835F0000 		lwz %r26,0(%r31)
 318              	.LVL36:
 319              	.L15:
 320              		.loc 1 196 0
 321 02a4 37DEFFFF 		addic. %r30,%r30,-1
 322 02a8 40E2FFD4 		bne+ %cr0,.L16
 323              		.loc 1 209 0
 324 02ac 3D200000 		lis %r9,btcc_min_temp_lowth@ha
 325 02b0 81290000 		lwz %r9,btcc_min_temp_lowth@l(%r9)
 326 02b4 1389D2CC 		efscmpgt %cr7,%r9,%r26
 327 02b8 1309D2CE 		efscmpeq %cr6,%r9,%r26
 328 02bc 4FBDCB82 		cror 4*%cr7+gt,4*%cr7+gt,4*%cr6+gt
 329 02c0 40DD0010 		bng- %cr7,.L47
 330              		.loc 1 210 0
 331 02c4 81010064 		lwz %r8,100(%r1)
 332 02c8 93480000 		stw %r26,0(%r8)
 333 02cc 48000048 		b .L19
 334              	.L47:
 335              		.loc 1 213 0
 336 02d0 83D90000 		lwz %r30,0(%r25)
 337              	.LVL37:
 338              		.loc 1 214 0
 339 02d4 3BE00000 		li %r31,0
 340              	.LVL38:
 341              	.L21:
 342 02d8 3B7B0004 		addi %r27,%r27,4
 343              		.loc 1 215 0
 344 02dc 807B0000 		lwz %r3,0(%r27)
 345 02e0 1383F2CD 		efscmplt %cr7,%r3,%r30
 346 02e4 1303F2CE 		efscmpeq %cr6,%r3,%r30
 347 02e8 4FBDCB82 		cror 4*%cr7+gt,4*%cr7+gt,4*%cr6+gt
 348 02ec 41FD0014 		bgt+ %cr7,.L20
 349              		.loc 1 216 0 discriminator 1
 350 02f0 48000001 		bl rtIsNaN
 351              	.LVL39:
 352              		.loc 1 215 0 discriminator 1
 353 02f4 2F830000 		cmpwi %cr7,%r3,0
 354 02f8 40DE0008 		bne- %cr7,.L20
 355              		.loc 1 217 0
 356 02fc 83DB0000 		lwz %r30,0(%r27)
 357              	.LVL40:
 358              	.L20:
 359              		.loc 1 214 0
 360 0300 2F9F0026 		cmpwi %cr7,%r31,38
 361 0304 3BFF0001 		addi %r31,%r31,1
 362              	.LVL41:
 363 0308 40FEFFD0 		bne+ %cr7,.L21
 364              		.loc 1 221 0
 365 030c 81210064 		lwz %r9,100(%r1)
 366 0310 93C90000 		stw %r30,0(%r9)
 367              	.LVL42:
 368              	.L19:
 369              		.loc 1 227 0
 370 0314 83970000 		lwz %r28,0(%r23)
 371 0318 81410064 		lwz %r10,100(%r1)
 372 031c 812A0000 		lwz %r9,0(%r10)
 373 0320 139C4AC1 		efssub %r28,%r28,%r9
 374              	.LVL43:
 375              		.loc 1 231 0
 376 0324 89380008 		lbz %r9,8(%r24)
 377 0328 81010068 		lwz %r8,104(%r1)
 378 032c 99280000 		stb %r9,0(%r8)
 379              		.loc 1 238 0
 380 0330 89350000 		lbz %r9,0(%r21)
 381 0334 2F890000 		cmpwi %cr7,%r9,0
 382 0338 40DE01A4 		bne- %cr7,.L22
 383              		.loc 1 237 0 discriminator 2
 384 033c 89320000 		lbz %r9,0(%r18)
 385 0340 2F890000 		cmpwi %cr7,%r9,0
 386 0344 40DE0198 		bne- %cr7,.L22
 387              		.loc 1 238 0
 388 0348 89310000 		lbz %r9,0(%r17)
 389 034c 2F890000 		cmpwi %cr7,%r9,0
 390 0350 40DE018C 		bne- %cr7,.L22
 391              		.loc 1 238 0 is_stmt 0 discriminator 1
 392 0354 81210058 		lwz %r9,88(%r1)
 393 0358 89290000 		lbz %r9,0(%r9)
 394 035c 7D2900D0 		neg %r9,%r9
 395 0360 55290FFE 		srwi %r9,%r9,31
 396              		.loc 1 237 0 is_stmt 1 discriminator 1
 397 0364 8141006C 		lwz %r10,108(%r1)
 398 0368 992A0000 		stb %r9,0(%r10)
 399              		.loc 1 247 0 discriminator 1
 400 036c 712800FF 		andi. %r8,%r9,0xff
 401 0370 41E20014 		beq+ %cr0,.L23
 402              	.L31:
 403              		.loc 1 248 0
 404 0374 3D204248 		lis %r9,0x4248
 405 0378 8141005C 		lwz %r10,92(%r1)
 406 037c 912A0000 		stw %r9,0(%r10)
 407 0380 48000084 		b .L24
 408              	.L23:
 409              		.loc 1 250 0
 410 0384 81010068 		lwz %r8,104(%r1)
 411 0388 89280000 		lbz %r9,0(%r8)
 412 038c 2F890000 		cmpwi %cr7,%r9,0
 413 0390 41DE0060 		beq- %cr7,.L35
 414              		.loc 1 250 0 is_stmt 0 discriminator 1
 415 0394 89330000 		lbz %r9,0(%r19)
 416 0398 2F890000 		cmpwi %cr7,%r9,0
 417 039c 40DE0010 		bne- %cr7,.L26
 418 03a0 892F0000 		lbz %r9,0(%r15)
 419 03a4 2F890000 		cmpwi %cr7,%r9,0
 420 03a8 41DE0050 		beq- %cr7,.L36
 421              	.L26:
 422              		.loc 1 257 0 is_stmt 1
 423 03ac 3D200000 		lis %r9,btcc_Kp@ha
 424 03b0 81490000 		lwz %r10,btcc_Kp@l(%r9)
 425 03b4 114AE2C8 		efsmul %r10,%r10,%r28
 426 03b8 81380004 		lwz %r9,4(%r24)
 427 03bc 112A4AC0 		efsadd %r9,%r10,%r9
 428              	.LVL44:
 429              		.loc 1 263 0
 430 03c0 3D4042C8 		lis %r10,0x42c8
 431 03c4 138952CC 		efscmpgt %cr7,%r9,%r10
 432 03c8 41DD0014 		bgt- %cr7,.L37
 433              		.loc 1 266 0
 434 03cc 3D40C2C8 		lis %r10,0xc2c8
 435 03d0 138952CD 		efscmplt %cr7,%r9,%r10
 436 03d4 41DD0010 		bgt- %cr7,.L38
 437 03d8 48000010 		b .L27
 438              	.L37:
 439              		.loc 1 264 0
 440 03dc 3D2042C8 		lis %r9,0x42c8
 441              	.LVL45:
 442 03e0 48000008 		b .L27
 443              	.LVL46:
 444              	.L38:
 445              		.loc 1 267 0
 446 03e4 3D20C2C8 		lis %r9,0xc2c8
 447              	.LVL47:
 448              	.L27:
 449              		.loc 1 275 0
 450 03e8 112902C4 		efsabs %r9,%r9
 451              	.LVL48:
 452 03ec 48000010 		b .L25
 453              	.LVL49:
 454              	.L35:
 455              		.loc 1 280 0
 456 03f0 39200000 		li %r9,0
 457 03f4 48000008 		b .L25
 458              	.L36:
 459 03f8 39200000 		li %r9,0
 460              	.LVL50:
 461              	.L25:
 462              		.loc 1 283 0
 463 03fc 8141005C 		lwz %r10,92(%r1)
 464 0400 912A0000 		stw %r9,0(%r10)
 465              	.LVL51:
 466              	.L24:
 467              		.loc 1 289 0
 468 0404 81370000 		lwz %r9,0(%r23)
 469 0408 91380000 		stw %r9,0(%r24)
 470              		.loc 1 296 0
 471 040c 3D200000 		lis %r9,btcc_Ki@ha
 472 0410 83690000 		lwz %r27,btcc_Ki@l(%r9)
 473 0414 80780004 		lwz %r3,4(%r24)
 474 0418 48000001 		bl __extendsfdf2
 475              	.LVL52:
 476 041c 7C9F2378 		mr %r31,%r4
 477 0420 7C7E1B78 		mr %r30,%r3
 478 0424 107BE2C8 		efsmul %r3,%r27,%r28
 479 0428 48000001 		bl __extendsfdf2
 480              	.LVL53:
 481 042c 3CA03FB9 		lis %r5,0x3fb9
 482 0430 60A59999 		ori %r5,%r5,39321
 483 0434 3CC09999 		lis %r6,0x9999
 484 0438 60C6999A 		ori %r6,%r6,39322
 485 043c 48000001 		bl __muldf3
 486              	.LVL54:
 487 0440 7C862378 		mr %r6,%r4
 488 0444 7C651B78 		mr %r5,%r3
 489 0448 7FC3F378 		mr %r3,%r30
 490 044c 7FE4FB78 		mr %r4,%r31
 491 0450 48000001 		bl __adddf3
 492              	.LVL55:
 493 0454 48000001 		bl __truncdfsf2
 494              	.LVL56:
 495 0458 90780004 		stw %r3,4(%r24)
 496              		.loc 1 301 0
 497 045c 89380009 		lbz %r9,9(%r24)
 498 0460 99380008 		stb %r9,8(%r24)
 499              		.loc 1 303 0
 500 0464 7E1DEB78 		or %r29,%r16,%r29
 501 0468 7ED6EB78 		or %r22,%r22,%r29
 502              	.LVL57:
 503 046c 7ED600D0 		neg %r22,%r22
 504 0470 56D60FFE 		srwi %r22,%r22,31
 505 0474 9AD80009 		stb %r22,9(%r24)
 506 0478 48000074 		b .L48
 507              	.LVL58:
 508              	.L9:
 509              		.loc 1 145 0
 510 047c 3D200000 		lis %r9,btcc_cell_temp_diffth@ha
 511 0480 81290000 		lwz %r9,btcc_cell_temp_diffth@l(%r9)
 512 0484 139CEAC1 		efssub %r28,%r28,%r29
 513              	.LVL59:
 514 0488 139C4ACC 		efscmpgt %cr7,%r28,%r9
 515 048c 131C4ACE 		efscmpeq %cr6,%r28,%r9
 516 0490 4FBDCB82 		cror 4*%cr7+gt,4*%cr7+gt,4*%cr6+gt
 517 0494 7FA00026 		mfcr %r29
 518 0498 57BDF7FE 		rlwinm %r29,%r29,30,31,31
 519              	.LVL60:
 520 049c 57BD063E 		rlwinm %r29,%r29,0,0xff
 521              	.LVL61:
 522              		.loc 1 153 0
 523 04a0 2F960000 		cmpwi %cr7,%r22,0
 524 04a4 40DEFD50 		bne- %cr7,.L39
 525 04a8 4BFFFD68 		b .L49
 526              	.LVL62:
 527              	.L10:
 528              		.loc 1 145 0
 529 04ac 3D200000 		lis %r9,btcc_cell_temp_diffth@ha
 530 04b0 81290000 		lwz %r9,btcc_cell_temp_diffth@l(%r9)
 531 04b4 139CEAC1 		efssub %r28,%r28,%r29
 532              	.LVL63:
 533 04b8 139C4ACC 		efscmpgt %cr7,%r28,%r9
 534 04bc 131C4ACE 		efscmpeq %cr6,%r28,%r9
 535 04c0 4FBDCB82 		cror 4*%cr7+gt,4*%cr7+gt,4*%cr6+gt
 536 04c4 7FA00026 		mfcr %r29
 537 04c8 57BDF7FE 		rlwinm %r29,%r29,30,31,31
 538              	.LVL64:
 539 04cc 57BD063E 		rlwinm %r29,%r29,0,0xff
 540              	.LVL65:
 541              		.loc 1 153 0
 542 04d0 2F960000 		cmpwi %cr7,%r22,0
 543 04d4 40DEFD28 		bne- %cr7,.L40
 544 04d8 4BFFFD48 		b .L50
 545              	.LVL66:
 546              	.L22:
 547              		.loc 1 237 0
 548 04dc 39200001 		li %r9,1
 549 04e0 8101006C 		lwz %r8,108(%r1)
 550 04e4 99280000 		stb %r9,0(%r8)
 551 04e8 4BFFFE8C 		b .L31
 552              	.LVL67:
 553              	.L48:
 554              		.loc 1 306 0
 555 04ec 80010054 		lwz %r0,84(%r1)
 556 04f0 7C0803A6 		mtlr %r0
 557 04f4 81E1000C 		lwz %r15,12(%r1)
 558              	.LVL68:
 559 04f8 82010010 		lwz %r16,16(%r1)
 560 04fc 82210014 		lwz %r17,20(%r1)
 561              	.LVL69:
 562 0500 82410018 		lwz %r18,24(%r1)
 563              	.LVL70:
 564 0504 8261001C 		lwz %r19,28(%r1)
 565              	.LVL71:
 566 0508 82810020 		lwz %r20,32(%r1)
 567 050c 82A10024 		lwz %r21,36(%r1)
 568              	.LVL72:
 569 0510 82C10028 		lwz %r22,40(%r1)
 570 0514 82E1002C 		lwz %r23,44(%r1)
 571 0518 83010030 		lwz %r24,48(%r1)
 572 051c 83210034 		lwz %r25,52(%r1)
 573              	.LVL73:
 574 0520 83410038 		lwz %r26,56(%r1)
 575 0524 8361003C 		lwz %r27,60(%r1)
 576 0528 83810040 		lwz %r28,64(%r1)
 577              	.LVL74:
 578 052c 83A10044 		lwz %r29,68(%r1)
 579 0530 83C10048 		lwz %r30,72(%r1)
 580 0534 83E1004C 		lwz %r31,76(%r1)
 581 0538 38210050 		addi %r1,%r1,80
 582              	.LCFI1:
 583              		.cfi_restore 31
 584              		.cfi_restore 30
 585              		.cfi_restore 29
 586              		.cfi_restore 28
 587              		.cfi_restore 27
 588              		.cfi_restore 26
 589              		.cfi_restore 25
 590              		.cfi_restore 24
 591              		.cfi_restore 23
 592              		.cfi_restore 22
 593              		.cfi_restore 21
 594              		.cfi_restore 20
 595              		.cfi_restore 19
 596              		.cfi_restore 18
 597              		.cfi_restore 17
 598              		.cfi_restore 16
 599              		.cfi_restore 15
 600              		.cfi_restore 65
 601              		.cfi_def_cfa_offset 0
 602 053c 4E800020 		blr
 603              		.cfi_endproc
 604              	.LFE1:
 605              		.size	BTC, .-BTC
 606              		.align 2
 607              		.globl BTC_initialize
 608              		.type	BTC_initialize, @function
 609              	BTC_initialize:
 610              	.LFB2:
 611              		.loc 1 310 0
 612              		.cfi_startproc
 613              	.LVL75:
 614 0540 9421FFF0 		stwu %r1,-16(%r1)
 615              	.LCFI2:
 616              		.cfi_def_cfa_offset 16
 617 0544 7C0802A6 		mflr %r0
 618 0548 90010014 		stw %r0,20(%r1)
 619 054c 93C10008 		stw %r30,8(%r1)
 620 0550 93E1000C 		stw %r31,12(%r1)
 621              		.cfi_offset 65, 4
 622              		.cfi_offset 30, -8
 623              		.cfi_offset 31, -4
 624 0554 7C7E1B78 		mr %r30,%r3
 625 0558 7C9F2378 		mr %r31,%r4
 626              		.loc 1 314 0
 627 055c 38600004 		li %r3,4
 628              	.LVL76:
 629 0560 48000001 		bl rt_InitInfAndNaN
 630              	.LVL77:
 631              		.loc 1 317 0
 632 0564 93DF0000 		stw %r30,0(%r31)
 633              		.loc 1 318 0
 634 0568 80010014 		lwz %r0,20(%r1)
 635 056c 7C0803A6 		mtlr %r0
 636 0570 83C10008 		lwz %r30,8(%r1)
 637              	.LVL78:
 638 0574 83E1000C 		lwz %r31,12(%r1)
 639              	.LVL79:
 640 0578 38210010 		addi %r1,%r1,16
 641              	.LCFI3:
 642              		.cfi_restore 31
 643              		.cfi_restore 30
 644              		.cfi_restore 65
 645              		.cfi_def_cfa_offset 0
 646 057c 4E800020 		blr
 647              		.cfi_endproc
 648              	.LFE2:
 649              		.size	BTC_initialize, .-BTC_initialize
 650              	.Letext0:
 651              		.file 2 "c:\\openecu\\platform\\2_8_0_r2019-1\\tools\\gcc_4_7_3\\ppc\\bin\\../lib/gcc/powerpc-eabi
 652              		.file 3 "../../../slprj/openecu_ert/_sharedutils/rtwtypes.h"
 653              		.file 4 "c:/openecu/platform/2_8_0_r2019-1/openecu/../targets/M110/M110_000/mpc5534_lib/include/ps
 654              		.file 5 "BTC_types.h"
 655              		.file 6 "BTC.h"
 656              		.file 7 "../../../slprj/openecu_ert/_sharedutils/global.h"
 657              		.file 8 "../../../slprj/openecu_ert/_sharedutils/rt_nonfinite.h"