   1              		.file	"rtGetInf.c"
   2              		.section	".text"
   3              	.Ltext0:
   4              		.cfi_sections	.debug_frame
   5              		.align 2
   6              		.globl rtGetInfF
   7              		.type	rtGetInfF, @function
   8              	rtGetInfF:
   9              	.LFB1:
  10              		.file 1 "../../../slprj/openecu_ert/_sharedutils/rtGetInf.c"
  11              		.loc 1 86 0
  12              		.cfi_startproc
  13              	.LVL0:
  14              		.loc 1 90 0
  15 0000 3C607F80 		lis %r3,0x7f80
  16 0004 4E800020 		blr
  17              		.cfi_endproc
  18              	.LFE1:
  19              		.size	rtGetInfF, .-rtGetInfF
  20              		.align 2
  21              		.globl rtGetInf
  22              		.type	rtGetInf, @function
  23              	rtGetInf:
  24              	.LFB0:
  25              		.loc 1 62 0
  26              		.cfi_startproc
  27 0008 9421FFF8 		stwu %r1,-8(%r1)
  28              	.LCFI0:
  29              		.cfi_def_cfa_offset 8
  30 000c 7C0802A6 		mflr %r0
  31 0010 9001000C 		stw %r0,12(%r1)
  32              		.cfi_offset 65, 4
  33              	.LVL1:
  34              		.loc 1 66 0
  35 0014 48000001 		bl rtGetInfF
  36              	.LVL2:
  37              		.loc 1 79 0
  38 0018 8001000C 		lwz %r0,12(%r1)
  39 001c 7C0803A6 		mtlr %r0
  40 0020 38210008 		addi %r1,%r1,8
  41              	.LCFI1:
  42              		.cfi_restore 65
  43              		.cfi_def_cfa_offset 0
  44 0024 4E800020 		blr
  45              		.cfi_endproc
  46              	.LFE0:
  47              		.size	rtGetInf, .-rtGetInf
  48              		.align 2
  49              		.globl rtGetMinusInfF
  50              		.type	rtGetMinusInfF, @function
  51              	rtGetMinusInfF:
  52              	.LFB3:
  53              		.loc 1 121 0
  54              		.cfi_startproc
  55              	.LVL3:
  56              		.loc 1 125 0
  57 0028 3C60FF80 		lis %r3,0xff80
  58 002c 4E800020 		blr
  59              		.cfi_endproc
  60              	.LFE3:
  61              		.size	rtGetMinusInfF, .-rtGetMinusInfF
  62              		.align 2
  63              		.globl rtGetMinusInf
  64              		.type	rtGetMinusInf, @function
  65              	rtGetMinusInf:
  66              	.LFB2:
  67              		.loc 1 97 0
  68              		.cfi_startproc
  69 0030 9421FFF8 		stwu %r1,-8(%r1)
  70              	.LCFI2:
  71              		.cfi_def_cfa_offset 8
  72 0034 7C0802A6 		mflr %r0
  73 0038 9001000C 		stw %r0,12(%r1)
  74              		.cfi_offset 65, 4
  75              	.LVL4:
  76              		.loc 1 101 0
  77 003c 48000001 		bl rtGetMinusInfF
  78              	.LVL5:
  79              		.loc 1 114 0
  80 0040 8001000C 		lwz %r0,12(%r1)
  81 0044 7C0803A6 		mtlr %r0
  82 0048 38210008 		addi %r1,%r1,8
  83              	.LCFI3:
  84              		.cfi_restore 65
  85              		.cfi_def_cfa_offset 0
  86 004c 4E800020 		blr
  87              		.cfi_endproc
  88              	.LFE2:
  89              		.size	rtGetMinusInf, .-rtGetMinusInf
  90              	.Letext0:
  91              		.file 2 "c:/openecu/platform/2_8_0_r2019-1/openecu/../targets/M110/M110_000/mpc5534_lib/include/ps
  92              		.file 3 "c:\\openecu\\platform\\2_8_0_r2019-1\\tools\\gcc_4_7_3\\ppc\\bin\\../lib/gcc/powerpc-eabi
  93              		.file 4 "../../../slprj/openecu_ert/_sharedutils/rt_nonfinite.h"