   1              		.file	"sop.c"
   2              		.section	".text"
   3              	.Ltext0:
   4              		.cfi_sections	.debug_frame
   5              		.globl __extendsfdf2
   6              		.globl __divdf3
   7              		.globl __muldf3
   8              		.globl __truncdfsf2
   9              		.align 2
  10              		.globl sop
  11              		.type	sop, @function
  12              	sop:
  13              	.LFB0:
  14              		.file 1 "sop.c"
  15              		.loc 1 60 0
  16              		.cfi_startproc
  17              	.LVL0:
  18 0000 9421FE58 		stwu %r1,-424(%r1)
  19              	.LCFI0:
  20              		.cfi_def_cfa_offset 424
  21 0004 7C0802A6 		mflr %r0
  22 0008 900101AC 		stw %r0,428(%r1)
  23 000c 91E10164 		stw %r15,356(%r1)
  24 0010 92010168 		stw %r16,360(%r1)
  25 0014 9221016C 		stw %r17,364(%r1)
  26 0018 92410170 		stw %r18,368(%r1)
  27 001c 92610174 		stw %r19,372(%r1)
  28 0020 92810178 		stw %r20,376(%r1)
  29 0024 92A1017C 		stw %r21,380(%r1)
  30 0028 92C10180 		stw %r22,384(%r1)
  31 002c 92E10184 		stw %r23,388(%r1)
  32 0030 93010188 		stw %r24,392(%r1)
  33 0034 9321018C 		stw %r25,396(%r1)
  34 0038 93410190 		stw %r26,400(%r1)
  35 003c 93610194 		stw %r27,404(%r1)
  36 0040 93810198 		stw %r28,408(%r1)
  37 0044 93A1019C 		stw %r29,412(%r1)
  38 0048 93C101A0 		stw %r30,416(%r1)
  39 004c 93E101A4 		stw %r31,420(%r1)
  40              		.cfi_offset 65, 4
  41              		.cfi_offset 15, -68
  42              		.cfi_offset 16, -64
  43              		.cfi_offset 17, -60
  44              		.cfi_offset 18, -56
  45              		.cfi_offset 19, -52
  46              		.cfi_offset 20, -48
  47              		.cfi_offset 21, -44
  48              		.cfi_offset 22, -40
  49              		.cfi_offset 23, -36
  50              		.cfi_offset 24, -32
  51              		.cfi_offset 25, -28
  52              		.cfi_offset 26, -24
  53              		.cfi_offset 27, -20
  54              		.cfi_offset 28, -16
  55              		.cfi_offset 29, -12
  56              		.cfi_offset 30, -8
  57              		.cfi_offset 31, -4
  58 0050 7C781B78 		mr %r24,%r3
  59 0054 7C9A2378 		mr %r26,%r4
  60 0058 90A10148 		stw %r5,328(%r1)
  61 005c 90C10154 		stw %r6,340(%r1)
  62 0060 7CEF3B78 		mr %r15,%r7
  63 0064 9101014C 		stw %r8,332(%r1)
  64 0068 91210150 		stw %r9,336(%r1)
  65 006c 91410158 		stw %r10,344(%r1)
  66 0070 82E101B0 		lwz %r23,432(%r1)
  67              	.LVL1:
  68              		.loc 1 60 0
  69 0074 3B600000 		li %r27,0
  70              		.loc 1 71 0
  71 0078 3E000000 		lis %r16,rtCP_pooled_zfGSF9vZXj7x@ha
  72 007c 3A100000 		la %r16,rtCP_pooled_zfGSF9vZXj7x@l(%r16)
  73 0080 3EC00000 		lis %r22,rtCP_pooled_rHx3pp1Yztcu@ha
  74 0084 3AD60000 		la %r22,rtCP_pooled_rHx3pp1Yztcu@l(%r22)
  75 0088 3E200000 		lis %r17,rtCP_pooled_hoBTSi5HXHjx@ha
  76 008c 3A310000 		la %r17,rtCP_pooled_hoBTSi5HXHjx@l(%r17)
  77 0090 3A400000 		la %r18,rtCP_pooled_JXRUI9h3ixHt@sda21(%r0)
  78              		.loc 1 80 0
  79 0094 3E600000 		lis %r19,rtCP_pooled_l4T2uMd4WbDc@ha
  80 0098 3A730000 		la %r19,rtCP_pooled_l4T2uMd4WbDc@l(%r19)
  81              		.loc 1 87 0
  82 009c 3E800000 		lis %r20,bmsc_CellMinVolt@ha
  83 00a0 3F803FF0 		lis %r28,0x3ff0
  84 00a4 3BA00000 		li %r29,0
  85              	.LVL2:
  86              	.L2:
  87              		.loc 1 71 0 discriminator 2
  88 00a8 7C78D82E 		lwzx %r3,%r24,%r27
  89 00ac 7C9AD82E 		lwzx %r4,%r26,%r27
  90 00b0 7E058378 		mr %r5,%r16
  91 00b4 7EC6B378 		mr %r6,%r22
  92 00b8 7E278B78 		mr %r7,%r17
  93 00bc 7E489378 		mr %r8,%r18
  94 00c0 39200003 		li %r9,3
  95 00c4 48000001 		bl look2_binlx
  96              	.LVL3:
  97              		.loc 1 77 0 discriminator 2
  98 00c8 7FF7D82E 		lwzx %r31,%r23,%r27
  99 00cc 13E3FAC9 		efsdiv %r31,%r3,%r31
 100              	.LVL4:
 101              		.loc 1 80 0 discriminator 2
 102 00d0 7C7AD82E 		lwzx %r3,%r26,%r27
 103              	.LVL5:
 104 00d4 7EC4B378 		mr %r4,%r22
 105 00d8 7E659B78 		mr %r5,%r19
 106 00dc 38C00064 		li %r6,100
 107 00e0 48000001 		bl look1_binlx
 108              	.LVL6:
 109 00e4 7C791B78 		mr %r25,%r3
 110              	.LVL7:
 111              		.loc 1 87 0 discriminator 2
 112 00e8 82B40000 		lwz %r21,bmsc_CellMinVolt@l(%r20)
 113 00ec 7FE3FB78 		mr %r3,%r31
 114              	.LVL8:
 115 00f0 48000001 		bl __extendsfdf2
 116              	.LVL9:
 117 00f4 7C862378 		mr %r6,%r4
 118 00f8 7C651B78 		mr %r5,%r3
 119 00fc 7F83E378 		mr %r3,%r28
 120 0100 7FA4EB78 		mr %r4,%r29
 121 0104 48000001 		bl __divdf3
 122              	.LVL10:
 123 0108 7C9F2378 		mr %r31,%r4
 124              	.LVL11:
 125 010c 7C7E1B78 		mr %r30,%r3
 126 0110 1079AAC1 		efssub %r3,%r25,%r21
 127 0114 48000001 		bl __extendsfdf2
 128              	.LVL12:
 129 0118 7C862378 		mr %r6,%r4
 130 011c 7C651B78 		mr %r5,%r3
 131 0120 7FC3F378 		mr %r3,%r30
 132 0124 7FE4FB78 		mr %r4,%r31
 133 0128 48000001 		bl __muldf3
 134              	.LVL13:
 135              		.loc 1 91 0 discriminator 2
 136 012c 39210008 		addi %r9,%r1,8
 137 0130 7F3B492E 		stwx %r25,%r27,%r9
 138              		.loc 1 87 0 discriminator 2
 139 0134 48000001 		bl __truncdfsf2
 140              	.LVL14:
 141 0138 392100A8 		addi %r9,%r1,168
 142 013c 7C69D92E 		stwx %r3,%r9,%r27
 143              		.loc 1 69 0 discriminator 2
 144 0140 2F9B009C 		cmpwi %cr7,%r27,156
 145 0144 3B7B0004 		addi %r27,%r27,4
 146 0148 40FEFF60 		bne+ %cr7,.L2
 147              		.loc 1 98 0
 148 014c 7C3E0B78 		mr %r30,%r1
 149 0150 879E00A8 		lwzu %r28,168(%r30)
 150              	.LVL15:
 151              		.loc 1 53 0
 152 0154 3B610144 		addi %r27,%r1,324
 153 0158 7FDDF378 		mr %r29,%r30
 154              	.LVL16:
 155              	.L4:
 156              		.loc 1 100 0
 157 015c 87FD0004 		lwzu %r31,4(%r29)
 158 0160 139FE2CC 		efscmpgt %cr7,%r31,%r28
 159 0164 131FE2CE 		efscmpeq %cr6,%r31,%r28
 160 0168 4FBDCB82 		cror 4*%cr7+gt,4*%cr7+gt,4*%cr6+gt
 161 016c 41FD0018 		bgt+ %cr7,.L3
 162              		.loc 1 100 0 is_stmt 0 discriminator 1
 163 0170 7FE3FB78 		mr %r3,%r31
 164 0174 48000001 		bl rtIsNaN
 165              	.LVL17:
 166 0178 2F830000 		cmpwi %cr7,%r3,0
 167 017c 40DE0008 		bne- %cr7,.L3
 168              		.loc 1 102 0 is_stmt 1
 169 0180 7FFCFB78 		mr %r28,%r31
 170              	.LVL18:
 171              	.L3:
 172              		.loc 1 99 0 discriminator 1
 173 0184 7F9DD800 		cmpw %cr7,%r29,%r27
 174 0188 40FEFFD4 		bne+ %cr7,.L4
 175              		.loc 1 113 0
 176 018c 892F0000 		lbz %r9,0(%r15)
 177 0190 2F890000 		cmpwi %cr7,%r9,0
 178 0194 40DE0200 		bne- %cr7,.L5
 179              		.loc 1 112 0 discriminator 2
 180 0198 8141014C 		lwz %r10,332(%r1)
 181 019c 892A0000 		lbz %r9,0(%r10)
 182 01a0 2F890000 		cmpwi %cr7,%r9,0
 183 01a4 40DE01F0 		bne- %cr7,.L5
 184              		.loc 1 113 0
 185 01a8 81410150 		lwz %r10,336(%r1)
 186 01ac 892A0000 		lbz %r9,0(%r10)
 187 01b0 2F890000 		cmpwi %cr7,%r9,0
 188 01b4 40DE01E0 		bne- %cr7,.L5
 189              		.loc 1 113 0 is_stmt 0 discriminator 1
 190 01b8 81210158 		lwz %r9,344(%r1)
 191 01bc 8B290000 		lbz %r25,0(%r9)
 192              	.LVL19:
 193 01c0 7F3900D0 		neg %r25,%r25
 194              		.loc 1 112 0 is_stmt 1 discriminator 1
 195 01c4 57390FFE 		srwi %r25,%r25,31
 196              	.LVL20:
 197              		.loc 1 121 0 discriminator 1
 198 01c8 81410154 		lwz %r10,340(%r1)
 199 01cc 892A0000 		lbz %r9,0(%r10)
 200              	.LVL21:
 201              		.loc 1 124 0 discriminator 1
 202 01d0 3D603F80 		lis %r11,0x3f80
 203              		.loc 1 121 0 discriminator 1
 204 01d4 2F890000 		cmpwi %cr7,%r9,0
 205 01d8 41DE0024 		beq- %cr7,.L6
 206              		.loc 1 124 0 discriminator 1
 207 01dc 3D603F80 		lis %r11,0x3f80
 208              		.loc 1 121 0 discriminator 1
 209 01e0 2F990000 		cmpwi %cr7,%r25,0
 210 01e4 41DE0018 		beq- %cr7,.L6
 211 01e8 48000008 		b .L11
 212              	.LVL22:
 213              	.L18:
 214              		.loc 1 112 0
 215 01ec 3B200001 		li %r25,1
 216              	.LVL23:
 217              	.L11:
 218              		.loc 1 122 0
 219 01f0 3D200000 		lis %r9,sopc_DischgFaultDerate@ha
 220 01f4 81690000 		lwz %r11,sopc_DischgFaultDerate@l(%r9)
 221              	.LVL24:
 222 01f8 48000004 		b .L6
 223              	.LVL25:
 224              	.L6:
 225              		.loc 1 138 0
 226 01fc 3D400000 		lis %r10,bmsc_CellMinVolt@ha
 227 0200 806A0000 		lwz %r3,bmsc_CellMinVolt@l(%r10)
 228 0204 3CE00000 		lis %r7,bmsc_NumberInSeries@ha
 229 0208 80870000 		lwz %r4,bmsc_NumberInSeries@l(%r7)
 230              		.loc 1 139 0
 231 020c 3D000000 		lis %r8,bmsc_NumberInPara@ha
 232 0210 80A80000 		lwz %r5,bmsc_NumberInPara@l(%r8)
 233 0214 3CC00000 		lis %r6,sopc_DischargeDerate@ha
 234 0218 80C60000 		lwz %r6,sopc_DischargeDerate@l(%r6)
 235              		.loc 1 138 0
 236 021c 1383E2C8 		efsmul %r28,%r3,%r28
 237              	.LVL26:
 238 0220 113C22C8 		efsmul %r9,%r28,%r4
 239              		.loc 1 139 0
 240 0224 11292AC8 		efsmul %r9,%r9,%r5
 241 0228 112932C8 		efsmul %r9,%r9,%r6
 242 022c 11295AC8 		efsmul %r9,%r9,%r11
 243              		.loc 1 138 0
 244 0230 80C101B4 		lwz %r6,436(%r1)
 245 0234 91260000 		stw %r9,0(%r6)
 246              		.loc 1 148 0
 247 0238 80E70000 		lwz %r7,bmsc_NumberInSeries@l(%r7)
 248 023c 81080000 		lwz %r8,bmsc_NumberInPara@l(%r8)
 249 0240 814A0000 		lwz %r10,bmsc_CellMinVolt@l(%r10)
 250 0244 110742C8 		efsmul %r8,%r7,%r8
 251              		.loc 1 147 0
 252 0248 112942C9 		efsdiv %r9,%r9,%r8
 253              		.loc 1 148 0
 254 024c 112952C9 		efsdiv %r9,%r9,%r10
 255              		.loc 1 147 0
 256 0250 814101B8 		lwz %r10,440(%r1)
 257 0254 912A0000 		stw %r9,0(%r10)
 258              	.LVL27:
 259 0258 3BE00000 		li %r31,0
 260              		.loc 1 151 0
 261 025c 3E800000 		lis %r20,rtCP_pooled_zfGSF9vZXj7x@ha
 262 0260 3A940000 		la %r20,rtCP_pooled_zfGSF9vZXj7x@l(%r20)
 263 0264 3EA00000 		lis %r21,rtCP_pooled_rHx3pp1Yztcu@ha
 264 0268 3AB50000 		la %r21,rtCP_pooled_rHx3pp1Yztcu@l(%r21)
 265 026c 3EC00000 		lis %r22,rtCP_pooled_y0kYFIWCa3nN@ha
 266 0270 3AD60000 		la %r22,rtCP_pooled_y0kYFIWCa3nN@l(%r22)
 267 0274 3B800000 		la %r28,rtCP_pooled_JXRUI9h3ixHt@sda21(%r0)
 268              		.loc 1 161 0
 269 0278 3FA00000 		lis %r29,bmsc_CellMaxVolt@ha
 270              	.LVL28:
 271              	.L7:
 272              		.loc 1 151 0 discriminator 2
 273 027c 7C78F82E 		lwzx %r3,%r24,%r31
 274 0280 7C9AF82E 		lwzx %r4,%r26,%r31
 275 0284 7E85A378 		mr %r5,%r20
 276 0288 7EA6AB78 		mr %r6,%r21
 277 028c 7EC7B378 		mr %r7,%r22
 278 0290 7F88E378 		mr %r8,%r28
 279 0294 39200003 		li %r9,3
 280 0298 48000001 		bl look2_binlx
 281              	.LVL29:
 282              		.loc 1 161 0 discriminator 2
 283 029c 813D0000 		lwz %r9,bmsc_CellMaxVolt@l(%r29)
 284 02a0 7D57F82E 		lwzx %r10,%r23,%r31
 285 02a4 106352C9 		efsdiv %r3,%r3,%r10
 286              	.LVL30:
 287 02a8 39410008 		addi %r10,%r1,8
 288 02ac 7D5F502E 		lwzx %r10,%r31,%r10
 289 02b0 112A4AC1 		efssub %r9,%r10,%r9
 290              	.LVL31:
 291 02b4 11291AC9 		efsdiv %r9,%r9,%r3
 292              		.loc 1 165 0 discriminator 2
 293 02b8 388100A8 		addi %r4,%r1,168
 294 02bc 7D3F212E 		stwx %r9,%r31,%r4
 295              		.loc 1 149 0 discriminator 2
 296 02c0 2F9F009C 		cmpwi %cr7,%r31,156
 297 02c4 3BFF0004 		addi %r31,%r31,4
 298 02c8 40FEFFB4 		bne+ %cr7,.L7
 299              		.loc 1 169 0
 300 02cc 83A100A8 		lwz %r29,168(%r1)
 301              	.LVL32:
 302              	.L9:
 303              		.loc 1 171 0
 304 02d0 87FE0004 		lwzu %r31,4(%r30)
 305 02d4 139FEACD 		efscmplt %cr7,%r31,%r29
 306 02d8 131FEACE 		efscmpeq %cr6,%r31,%r29
 307 02dc 4FBDCB82 		cror 4*%cr7+gt,4*%cr7+gt,4*%cr6+gt
 308 02e0 41FD0018 		bgt+ %cr7,.L8
 309              		.loc 1 171 0 is_stmt 0 discriminator 1
 310 02e4 7FE3FB78 		mr %r3,%r31
 311 02e8 48000001 		bl rtIsNaN
 312              	.LVL33:
 313 02ec 2F830000 		cmpwi %cr7,%r3,0
 314 02f0 40DE0008 		bne- %cr7,.L8
 315              		.loc 1 173 0 is_stmt 1
 316 02f4 7FFDFB78 		mr %r29,%r31
 317              	.LVL34:
 318              	.L8:
 319              		.loc 1 170 0 discriminator 1
 320 02f8 7F9BF000 		cmpw %cr7,%r27,%r30
 321 02fc 40FEFFD4 		bne+ %cr7,.L9
 322              		.loc 1 182 0
 323 0300 81410148 		lwz %r10,328(%r1)
 324 0304 892A0000 		lbz %r9,0(%r10)
 325              		.loc 1 185 0
 326 0308 3D603F80 		lis %r11,0x3f80
 327              		.loc 1 182 0
 328 030c 2F890000 		cmpwi %cr7,%r9,0
 329 0310 41DE001C 		beq- %cr7,.L10
 330              		.loc 1 185 0 discriminator 1
 331 0314 3D603F80 		lis %r11,0x3f80
 332              		.loc 1 182 0 discriminator 1
 333 0318 2F990000 		cmpwi %cr7,%r25,0
 334 031c 41DE0010 		beq- %cr7,.L10
 335              		.loc 1 183 0
 336 0320 3D200000 		lis %r9,sopc_ChgFaultDerate@ha
 337 0324 81690000 		lwz %r11,sopc_ChgFaultDerate@l(%r9)
 338              	.LVL35:
 339 0328 48000004 		b .L10
 340              	.LVL36:
 341              	.L10:
 342              		.loc 1 199 0
 343 032c 3D400000 		lis %r10,bmsc_CellMaxVolt@ha
 344 0330 806A0000 		lwz %r3,bmsc_CellMaxVolt@l(%r10)
 345 0334 3CE00000 		lis %r7,bmsc_NumberInSeries@ha
 346 0338 80870000 		lwz %r4,bmsc_NumberInSeries@l(%r7)
 347 033c 3D000000 		lis %r8,bmsc_NumberInPara@ha
 348 0340 80A80000 		lwz %r5,bmsc_NumberInPara@l(%r8)
 349              		.loc 1 200 0
 350 0344 3CC00000 		lis %r6,sopc_ChargeDerate@ha
 351 0348 80C60000 		lwz %r6,sopc_ChargeDerate@l(%r6)
 352              		.loc 1 199 0
 353 034c 13BD1AC8 		efsmul %r29,%r29,%r3
 354              	.LVL37:
 355 0350 113D22C8 		efsmul %r9,%r29,%r4
 356 0354 11292AC8 		efsmul %r9,%r9,%r5
 357              		.loc 1 200 0
 358 0358 112932C8 		efsmul %r9,%r9,%r6
 359              		.loc 1 199 0
 360 035c 11295AC8 		efsmul %r9,%r9,%r11
 361              	.LVL38:
 362              		.loc 1 208 0
 363 0360 80E70000 		lwz %r7,bmsc_NumberInSeries@l(%r7)
 364 0364 81080000 		lwz %r8,bmsc_NumberInPara@l(%r8)
 365              		.loc 1 209 0
 366 0368 814A0000 		lwz %r10,bmsc_CellMaxVolt@l(%r10)
 367              		.loc 1 208 0
 368 036c 110742C8 		efsmul %r8,%r7,%r8
 369 0370 110942C9 		efsdiv %r8,%r9,%r8
 370              		.loc 1 209 0
 371 0374 110852C9 		efsdiv %r8,%r8,%r10
 372              		.loc 1 208 0
 373 0378 110802C6 		efsneg %r8,%r8
 374 037c 814101C0 		lwz %r10,448(%r1)
 375 0380 910A0000 		stw %r8,0(%r10)
 376              		.loc 1 212 0
 377 0384 112902C6 		efsneg %r9,%r9
 378              	.LVL39:
 379 0388 814101BC 		lwz %r10,444(%r1)
 380 038c 912A0000 		stw %r9,0(%r10)
 381 0390 48000020 		b .L23
 382              	.LVL40:
 383              	.L5:
 384              		.loc 1 121 0
 385 0394 81410154 		lwz %r10,340(%r1)
 386 0398 892A0000 		lbz %r9,0(%r10)
 387 039c 2F890000 		cmpwi %cr7,%r9,0
 388 03a0 40DEFE4C 		bne- %cr7,.L18
 389              		.loc 1 112 0
 390 03a4 3B200001 		li %r25,1
 391              	.LVL41:
 392              		.loc 1 124 0
 393 03a8 3D603F80 		lis %r11,0x3f80
 394 03ac 4BFFFE50 		b .L6
 395              	.LVL42:
 396              	.L23:
 397              		.loc 1 215 0
 398 03b0 800101AC 		lwz %r0,428(%r1)
 399 03b4 7C0803A6 		mtlr %r0
 400 03b8 81E10164 		lwz %r15,356(%r1)
 401              	.LVL43:
 402 03bc 82010168 		lwz %r16,360(%r1)
 403 03c0 8221016C 		lwz %r17,364(%r1)
 404 03c4 82410170 		lwz %r18,368(%r1)
 405 03c8 82610174 		lwz %r19,372(%r1)
 406 03cc 82810178 		lwz %r20,376(%r1)
 407 03d0 82A1017C 		lwz %r21,380(%r1)
 408 03d4 82C10180 		lwz %r22,384(%r1)
 409 03d8 82E10184 		lwz %r23,388(%r1)
 410 03dc 83010188 		lwz %r24,392(%r1)
 411              	.LVL44:
 412 03e0 8321018C 		lwz %r25,396(%r1)
 413 03e4 83410190 		lwz %r26,400(%r1)
 414              	.LVL45:
 415 03e8 83610194 		lwz %r27,404(%r1)
 416 03ec 83810198 		lwz %r28,408(%r1)
 417 03f0 83A1019C 		lwz %r29,412(%r1)
 418              	.LVL46:
 419 03f4 83C101A0 		lwz %r30,416(%r1)
 420 03f8 83E101A4 		lwz %r31,420(%r1)
 421 03fc 382101A8 		addi %r1,%r1,424
 422              	.LCFI1:
 423              		.cfi_restore 31
 424              		.cfi_restore 30
 425              		.cfi_restore 29
 426              		.cfi_restore 28
 427              		.cfi_restore 27
 428              		.cfi_restore 26
 429              		.cfi_restore 25
 430              		.cfi_restore 24
 431              		.cfi_restore 23
 432              		.cfi_restore 22
 433              		.cfi_restore 21
 434              		.cfi_restore 20
 435              		.cfi_restore 19
 436              		.cfi_restore 18
 437              		.cfi_restore 17
 438              		.cfi_restore 16
 439              		.cfi_restore 15
 440              		.cfi_restore 65
 441              		.cfi_def_cfa_offset 0
 442 0400 4E800020 		blr
 443              		.cfi_endproc
 444              	.LFE0:
 445              		.size	sop, .-sop
 446              		.align 2
 447              		.globl sop_initialize
 448              		.type	sop_initialize, @function
 449              	sop_initialize:
 450              	.LFB1:
 451              		.loc 1 219 0
 452              		.cfi_startproc
 453              	.LVL47:
 454 0404 9421FFF0 		stwu %r1,-16(%r1)
 455              	.LCFI2:
 456              		.cfi_def_cfa_offset 16
 457 0408 7C0802A6 		mflr %r0
 458 040c 90010014 		stw %r0,20(%r1)
 459 0410 93C10008 		stw %r30,8(%r1)
 460 0414 93E1000C 		stw %r31,12(%r1)
 461              		.cfi_offset 65, 4
 462              		.cfi_offset 30, -8
 463              		.cfi_offset 31, -4
 464 0418 7C7E1B78 		mr %r30,%r3
 465 041c 7C9F2378 		mr %r31,%r4
 466              		.loc 1 223 0
 467 0420 38600004 		li %r3,4
 468              	.LVL48:
 469 0424 48000001 		bl rt_InitInfAndNaN
 470              	.LVL49:
 471              		.loc 1 226 0
 472 0428 93DF0000 		stw %r30,0(%r31)
 473              		.loc 1 227 0
 474 042c 80010014 		lwz %r0,20(%r1)
 475 0430 7C0803A6 		mtlr %r0
 476 0434 83C10008 		lwz %r30,8(%r1)
 477              	.LVL50:
 478 0438 83E1000C 		lwz %r31,12(%r1)
 479              	.LVL51:
 480 043c 38210010 		addi %r1,%r1,16
 481              	.LCFI3:
 482              		.cfi_restore 31
 483              		.cfi_restore 30
 484              		.cfi_restore 65
 485              		.cfi_def_cfa_offset 0
 486 0440 4E800020 		blr
 487              		.cfi_endproc
 488              	.LFE1:
 489              		.size	sop_initialize, .-sop_initialize
 490              	.Letext0:
 491              		.file 2 "../../../slprj/openecu_ert/_sharedutils/rtwtypes.h"
 492              		.file 3 "c:\\openecu\\platform\\2_8_0_r2019-1\\tools\\gcc_4_7_3\\ppc\\bin\\../lib/gcc/powerpc-eabi
 493              		.file 4 "c:/openecu/platform/2_8_0_r2019-1/openecu/../targets/M110/M110_000/mpc5534_lib/include/ps
 494              		.file 5 "sop_types.h"
 495              		.file 6 "../../../slprj/openecu_ert/_sharedutils/global.h"
 496              		.file 7 "sop_private.h"
 497              		.file 8 "../../../slprj/openecu_ert/_sharedutils/look2_binlx.h"
 498              		.file 9 "../../../slprj/openecu_ert/_sharedutils/look1_binlx.h"
 499              		.file 10 "../../../slprj/openecu_ert/_sharedutils/rt_nonfinite.h"
 500              		.file 11 "sop.h"