   1              		.file	"soh.c"
   2              		.section	".text"
   3              	.Ltext0:
   4              		.cfi_sections	.debug_frame
   5              		.globl __extendsfdf2
   6              		.globl __divdf3
   7              		.globl __subdf3
   8              		.globl __truncdfsf2
   9              		.align 2
  10              		.globl soh_deltaCalc
  11              		.type	soh_deltaCalc, @function
  12              	soh_deltaCalc:
  13              	.LFB0:
  14              		.file 1 "soh.c"
  15              		.loc 1 63 0
  16              		.cfi_startproc
  17              	.LVL0:
  18 0000 9421FFB8 		stwu %r1,-72(%r1)
  19              	.LCFI0:
  20              		.cfi_def_cfa_offset 72
  21 0004 7C0802A6 		mflr %r0
  22 0008 9001004C 		stw %r0,76(%r1)
  23 000c 92010008 		stw %r16,8(%r1)
  24 0010 9221000C 		stw %r17,12(%r1)
  25 0014 92410010 		stw %r18,16(%r1)
  26 0018 92610014 		stw %r19,20(%r1)
  27 001c 92810018 		stw %r20,24(%r1)
  28 0020 92A1001C 		stw %r21,28(%r1)
  29 0024 92C10020 		stw %r22,32(%r1)
  30 0028 92E10024 		stw %r23,36(%r1)
  31 002c 93010028 		stw %r24,40(%r1)
  32 0030 9321002C 		stw %r25,44(%r1)
  33 0034 93410030 		stw %r26,48(%r1)
  34 0038 93610034 		stw %r27,52(%r1)
  35 003c 93810038 		stw %r28,56(%r1)
  36 0040 93A1003C 		stw %r29,60(%r1)
  37 0044 93C10040 		stw %r30,64(%r1)
  38 0048 93E10044 		stw %r31,68(%r1)
  39              		.cfi_offset 65, 4
  40              		.cfi_offset 16, -64
  41              		.cfi_offset 17, -60
  42              		.cfi_offset 18, -56
  43              		.cfi_offset 19, -52
  44              		.cfi_offset 20, -48
  45              		.cfi_offset 21, -44
  46              		.cfi_offset 22, -40
  47              		.cfi_offset 23, -36
  48              		.cfi_offset 24, -32
  49              		.cfi_offset 25, -28
  50              		.cfi_offset 26, -24
  51              		.cfi_offset 27, -20
  52              		.cfi_offset 28, -16
  53              		.cfi_offset 29, -12
  54              		.cfi_offset 30, -8
  55              		.cfi_offset 31, -4
  56 004c 7C701B78 		mr %r16,%r3
  57 0050 7C982378 		mr %r24,%r4
  58 0054 7CB12B78 		mr %r17,%r5
  59 0058 7CD23378 		mr %r18,%r6
  60              	.LVL1:
  61              		.loc 1 59 0
  62 005c 3AE7FFFF 		addi %r23,%r7,-1
  63 0060 7D3A4B78 		mr %r26,%r9
  64 0064 7D194378 		mr %r25,%r8
  65 0068 3B600000 		li %r27,0
  66              		.loc 1 74 0
  67 006c 3F803FF1 		lis %r28,0x3ff1
  68 0070 639C9999 		ori %r28,%r28,39321
  69 0074 3FA09999 		lis %r29,0x9999
  70 0078 63BD999A 		ori %r29,%r29,39322
  71              		.loc 1 88 0
  72 007c 3E600000 		lis %r19,rtCP_pooled_zfGSF9vZXj7x@ha
  73 0080 3A730000 		la %r19,rtCP_pooled_zfGSF9vZXj7x@l(%r19)
  74 0084 3E800000 		lis %r20,rtCP_pooled_rHx3pp1Yztcu@ha
  75 0088 3A940000 		la %r20,rtCP_pooled_rHx3pp1Yztcu@l(%r20)
  76 008c 3EA00000 		lis %r21,rtCP_pooled_hoBTSi5HXHjx@ha
  77 0090 3AB50000 		la %r21,rtCP_pooled_hoBTSi5HXHjx@l(%r21)
  78 0094 3AC00000 		la %r22,rtCP_pooled_JXRUI9h3ixHt@sda21(%r0)
  79              	.LVL2:
  80              	.L2:
  81              		.loc 1 74 0 discriminator 2
  82 0098 80700000 		lwz %r3,0(%r16)
  83 009c 48000001 		bl __extendsfdf2
  84              	.LVL3:
  85 00a0 7C9F2378 		mr %r31,%r4
  86 00a4 7C7E1B78 		mr %r30,%r3
  87 00a8 8C770001 		lbzu %r3,1(%r23)
  88 00ac 10601AD0 		efscfui %r3,%r3
  89 00b0 7D38D82E 		lwzx %r9,%r24,%r27
  90 00b4 10634AC8 		efsmul %r3,%r3,%r9
  91 00b8 48000001 		bl __extendsfdf2
  92              	.LVL4:
  93 00bc 7F85E378 		mr %r5,%r28
  94 00c0 7FA6EB78 		mr %r6,%r29
  95 00c4 48000001 		bl __divdf3
  96              	.LVL5:
  97 00c8 7C862378 		mr %r6,%r4
  98 00cc 7C651B78 		mr %r5,%r3
  99 00d0 7FC3F378 		mr %r3,%r30
 100 00d4 7FE4FB78 		mr %r4,%r31
 101 00d8 48000001 		bl __subdf3
 102              	.LVL6:
 103 00dc 48000001 		bl __truncdfsf2
 104              	.LVL7:
 105 00e0 7C7F1B78 		mr %r31,%r3
 106              	.LVL8:
 107              		.loc 1 80 0 discriminator 2
 108 00e4 813A0000 		lwz %r9,0(%r26)
 109 00e8 11234AC1 		efssub %r9,%r3,%r9
 110 00ec 91390000 		stw %r9,0(%r25)
 111              		.loc 1 85 0 discriminator 2
 112 00f0 7D58D82E 		lwzx %r10,%r24,%r27
 113 00f4 813A00A0 		lwz %r9,160(%r26)
 114 00f8 112A4AC1 		efssub %r9,%r10,%r9
 115 00fc 913900A0 		stw %r9,160(%r25)
 116              		.loc 1 88 0 discriminator 2
 117 0100 7C72D82E 		lwzx %r3,%r18,%r27
 118              	.LVL9:
 119 0104 7C91D82E 		lwzx %r4,%r17,%r27
 120 0108 7E659B78 		mr %r5,%r19
 121 010c 7E86A378 		mr %r6,%r20
 122 0110 7EA7AB78 		mr %r7,%r21
 123 0114 7EC8B378 		mr %r8,%r22
 124 0118 39200003 		li %r9,3
 125 011c 48000001 		bl look2_binlx
 126              	.LVL10:
 127 0120 90790140 		stw %r3,320(%r25)
 128              		.loc 1 93 0 discriminator 2
 129 0124 93FA0000 		stw %r31,0(%r26)
 130              		.loc 1 96 0 discriminator 2
 131 0128 7D38D82E 		lwzx %r9,%r24,%r27
 132 012c 913A00A0 		stw %r9,160(%r26)
 133 0130 3B5A0004 		addi %r26,%r26,4
 134 0134 3B390004 		addi %r25,%r25,4
 135              		.loc 1 66 0 discriminator 2
 136 0138 2F9B009C 		cmpwi %cr7,%r27,156
 137 013c 3B7B0004 		addi %r27,%r27,4
 138 0140 40FEFF58 		bne+ %cr7,.L2
 139              		.loc 1 98 0
 140 0144 8001004C 		lwz %r0,76(%r1)
 141 0148 7C0803A6 		mtlr %r0
 142 014c 82010008 		lwz %r16,8(%r1)
 143              	.LVL11:
 144 0150 8221000C 		lwz %r17,12(%r1)
 145              	.LVL12:
 146 0154 82410010 		lwz %r18,16(%r1)
 147              	.LVL13:
 148 0158 82610014 		lwz %r19,20(%r1)
 149 015c 82810018 		lwz %r20,24(%r1)
 150 0160 82A1001C 		lwz %r21,28(%r1)
 151 0164 82C10020 		lwz %r22,32(%r1)
 152 0168 82E10024 		lwz %r23,36(%r1)
 153 016c 83010028 		lwz %r24,40(%r1)
 154              	.LVL14:
 155 0170 8321002C 		lwz %r25,44(%r1)
 156 0174 83410030 		lwz %r26,48(%r1)
 157 0178 83610034 		lwz %r27,52(%r1)
 158 017c 83810038 		lwz %r28,56(%r1)
 159 0180 83A1003C 		lwz %r29,60(%r1)
 160 0184 83C10040 		lwz %r30,64(%r1)
 161 0188 83E10044 		lwz %r31,68(%r1)
 162              	.LVL15:
 163 018c 38210048 		addi %r1,%r1,72
 164              	.LCFI1:
 165              		.cfi_restore 31
 166              		.cfi_restore 30
 167              		.cfi_restore 29
 168              		.cfi_restore 28
 169              		.cfi_restore 27
 170              		.cfi_restore 26
 171              		.cfi_restore 25
 172              		.cfi_restore 24
 173              		.cfi_restore 23
 174              		.cfi_restore 22
 175              		.cfi_restore 21
 176              		.cfi_restore 20
 177              		.cfi_restore 19
 178              		.cfi_restore 18
 179              		.cfi_restore 17
 180              		.cfi_restore 16
 181              		.cfi_restore 65
 182              		.cfi_def_cfa_offset 0
 183 0190 4E800020 		blr
 184              		.cfi_endproc
 185              	.LFE0:
 186              		.size	soh_deltaCalc, .-soh_deltaCalc
 187              		.align 2
 188              		.globl soh_key_on_Init
 189              		.type	soh_key_on_Init, @function
 190              	soh_key_on_Init:
 191              	.LFB1:
 192              		.loc 1 102 0
 193              		.cfi_startproc
 194              	.LVL16:
 195 0194 9421FFF0 		stwu %r1,-16(%r1)
 196              	.LCFI2:
 197              		.cfi_def_cfa_offset 16
 198 0198 7C0802A6 		mflr %r0
 199 019c 90010014 		stw %r0,20(%r1)
 200 01a0 93E1000C 		stw %r31,12(%r1)
 201              		.cfi_offset 65, 4
 202              		.cfi_offset 31, -4
 203 01a4 7C7F1B78 		mr %r31,%r3
 204              		.loc 1 106 0
 205 01a8 3C800000 		lis %r4,sohv_factoryInit_sohc@ha
 206 01ac 38840000 		la %r4,sohv_factoryInit_sohc@l(%r4)
 207 01b0 38A000A0 		li %r5,160
 208 01b4 48000001 		bl memcpy
 209              	.LVL17:
 210              		.loc 1 112 0
 211 01b8 387F00A0 		addi %r3,%r31,160
 212 01bc 3C800000 		lis %r4,sohv_factoryInit_sohr@ha
 213 01c0 38840000 		la %r4,sohv_factoryInit_sohr@l(%r4)
 214 01c4 38A000A0 		li %r5,160
 215 01c8 48000001 		bl memcpy
 216              	.LVL18:
 217              		.loc 1 114 0
 218 01cc 80010014 		lwz %r0,20(%r1)
 219 01d0 7C0803A6 		mtlr %r0
 220 01d4 83E1000C 		lwz %r31,12(%r1)
 221              	.LVL19:
 222 01d8 38210010 		addi %r1,%r1,16
 223              	.LCFI3:
 224              		.cfi_restore 31
 225              		.cfi_restore 65
 226              		.cfi_def_cfa_offset 0
 227 01dc 4E800020 		blr
 228              		.cfi_endproc
 229              	.LFE1:
 230              		.size	soh_key_on_Init, .-soh_key_on_Init
 231              		.globl __muldf3
 232              		.globl __adddf3
 233              		.align 2
 234              		.globl soh_key_on
 235              		.type	soh_key_on, @function
 236              	soh_key_on:
 237              	.LFB2:
 238              		.loc 1 120 0
 239              		.cfi_startproc
 240              	.LVL20:
 241 01e0 9421FE88 		stwu %r1,-376(%r1)
 242              	.LCFI4:
 243              		.cfi_def_cfa_offset 376
 244 01e4 7C0802A6 		mflr %r0
 245 01e8 9001017C 		stw %r0,380(%r1)
 246 01ec 92810148 		stw %r20,328(%r1)
 247 01f0 92A1014C 		stw %r21,332(%r1)
 248 01f4 92C10150 		stw %r22,336(%r1)
 249 01f8 92E10154 		stw %r23,340(%r1)
 250 01fc 93010158 		stw %r24,344(%r1)
 251 0200 9321015C 		stw %r25,348(%r1)
 252 0204 93410160 		stw %r26,352(%r1)
 253 0208 93610164 		stw %r27,356(%r1)
 254 020c 93810168 		stw %r28,360(%r1)
 255 0210 93A1016C 		stw %r29,364(%r1)
 256 0214 93C10170 		stw %r30,368(%r1)
 257 0218 93E10174 		stw %r31,372(%r1)
 258              		.cfi_offset 65, 4
 259              		.cfi_offset 20, -48
 260              		.cfi_offset 21, -44
 261              		.cfi_offset 22, -40
 262              		.cfi_offset 23, -36
 263              		.cfi_offset 24, -32
 264              		.cfi_offset 25, -28
 265              		.cfi_offset 26, -24
 266              		.cfi_offset 27, -20
 267              		.cfi_offset 28, -16
 268              		.cfi_offset 29, -12
 269              		.cfi_offset 30, -8
 270              		.cfi_offset 31, -4
 271 021c 7C751B78 		mr %r21,%r3
 272 0220 7C9A2378 		mr %r26,%r4
 273 0224 7CB92B78 		mr %r25,%r5
 274 0228 7CDB3378 		mr %r27,%r6
 275              	.LVL21:
 276              		.loc 1 117 0
 277 022c 3AC6009C 		addi %r22,%r6,156
 278 0230 3B000000 		li %r24,0
 279              		.loc 1 133 0
 280 0234 3EE00000 		lis %r23,sohc_customer_filter_coeff@ha
 281 0238 3F803FF0 		lis %r28,0x3ff0
 282 023c 3BA00000 		li %r29,0
 283              	.LVL22:
 284              	.L8:
 285              		.loc 1 133 0 is_stmt 0 discriminator 2
 286 0240 80770000 		lwz %r3,sohc_customer_filter_coeff@l(%r23)
 287              		.loc 1 134 0 is_stmt 1 discriminator 2
 288 0244 82970000 		lwz %r20,sohc_customer_filter_coeff@l(%r23)
 289              		.loc 1 133 0 discriminator 2
 290 0248 48000001 		bl __extendsfdf2
 291              	.LVL23:
 292 024c 7C862378 		mr %r6,%r4
 293 0250 7C651B78 		mr %r5,%r3
 294 0254 7F83E378 		mr %r3,%r28
 295 0258 7FA4EB78 		mr %r4,%r29
 296 025c 48000001 		bl __subdf3
 297              	.LVL24:
 298 0260 7C9F2378 		mr %r31,%r4
 299 0264 7C7E1B78 		mr %r30,%r3
 300 0268 7C75C02E 		lwzx %r3,%r21,%r24
 301 026c 48000001 		bl __extendsfdf2
 302              	.LVL25:
 303 0270 7C862378 		mr %r6,%r4
 304 0274 7C651B78 		mr %r5,%r3
 305 0278 7FC3F378 		mr %r3,%r30
 306 027c 7FE4FB78 		mr %r4,%r31
 307 0280 48000001 		bl __muldf3
 308              	.LVL26:
 309 0284 7C9F2378 		mr %r31,%r4
 310 0288 7C7E1B78 		mr %r30,%r3
 311              		.loc 1 134 0 discriminator 2
 312 028c 84760004 		lwzu %r3,4(%r22)
 313              		.loc 1 133 0 discriminator 2
 314 0290 10741AC8 		efsmul %r3,%r20,%r3
 315 0294 48000001 		bl __extendsfdf2
 316              	.LVL27:
 317 0298 7C862378 		mr %r6,%r4
 318 029c 7C651B78 		mr %r5,%r3
 319 02a0 7FC3F378 		mr %r3,%r30
 320 02a4 7FE4FB78 		mr %r4,%r31
 321 02a8 48000001 		bl __adddf3
 322              	.LVL28:
 323 02ac 48000001 		bl __truncdfsf2
 324              	.LVL29:
 325 02b0 39210008 		addi %r9,%r1,8
 326 02b4 7C69C12E 		stwx %r3,%r9,%r24
 327              		.loc 1 132 0 discriminator 2
 328 02b8 2F98009C 		cmpwi %cr7,%r24,156
 329 02bc 3B180004 		addi %r24,%r24,4
 330 02c0 40FEFF80 		bne+ %cr7,.L8
 331              		.loc 1 140 0
 332 02c4 7C3E0B78 		mr %r30,%r1
 333 02c8 86FE0008 		lwzu %r23,8(%r30)
 334              	.LVL30:
 335              		.loc 1 117 0
 336 02cc 3BA100A4 		addi %r29,%r1,164
 337              	.LVL31:
 338              	.L10:
 339              		.loc 1 142 0
 340 02d0 87FE0004 		lwzu %r31,4(%r30)
 341 02d4 139FBACC 		efscmpgt %cr7,%r31,%r23
 342 02d8 131FBACE 		efscmpeq %cr6,%r31,%r23
 343 02dc 4FBDCB82 		cror 4*%cr7+gt,4*%cr7+gt,4*%cr6+gt
 344 02e0 41FD0018 		bgt+ %cr7,.L9
 345              		.loc 1 142 0 is_stmt 0 discriminator 1
 346 02e4 7FE3FB78 		mr %r3,%r31
 347 02e8 48000001 		bl rtIsNaN
 348              	.LVL32:
 349 02ec 2F830000 		cmpwi %cr7,%r3,0
 350 02f0 40DE0008 		bne- %cr7,.L9
 351              		.loc 1 143 0 is_stmt 1
 352 02f4 7FF7FB78 		mr %r23,%r31
 353              	.LVL33:
 354              	.L9:
 355              		.loc 1 141 0 discriminator 1
 356 02f8 7F9EE800 		cmpw %cr7,%r30,%r29
 357 02fc 40FEFFD4 		bne+ %cr7,.L10
 358 0300 7EF5BB78 		mr %r21,%r23
 359              	.LVL34:
 360 0304 3B000000 		li %r24,0
 361              		.loc 1 153 0 discriminator 1
 362 0308 3EC00000 		lis %r22,sohc_customer_filter_coeff@ha
 363 030c 3F803FF0 		lis %r28,0x3ff0
 364 0310 3BA00000 		li %r29,0
 365              	.LVL35:
 366              	.L11:
 367              		.loc 1 153 0 is_stmt 0 discriminator 2
 368 0314 80760000 		lwz %r3,sohc_customer_filter_coeff@l(%r22)
 369              		.loc 1 154 0 is_stmt 1 discriminator 2
 370 0318 82960000 		lwz %r20,sohc_customer_filter_coeff@l(%r22)
 371              		.loc 1 153 0 discriminator 2
 372 031c 48000001 		bl __extendsfdf2
 373              	.LVL36:
 374 0320 7C862378 		mr %r6,%r4
 375 0324 7C651B78 		mr %r5,%r3
 376 0328 7F83E378 		mr %r3,%r28
 377 032c 7FA4EB78 		mr %r4,%r29
 378 0330 48000001 		bl __subdf3
 379              	.LVL37:
 380 0334 7C9F2378 		mr %r31,%r4
 381 0338 7C7E1B78 		mr %r30,%r3
 382 033c 7C7AC02E 		lwzx %r3,%r26,%r24
 383 0340 48000001 		bl __extendsfdf2
 384              	.LVL38:
 385 0344 7C862378 		mr %r6,%r4
 386 0348 7C651B78 		mr %r5,%r3
 387 034c 7FC3F378 		mr %r3,%r30
 388 0350 7FE4FB78 		mr %r4,%r31
 389 0354 48000001 		bl __muldf3
 390              	.LVL39:
 391 0358 7C9F2378 		mr %r31,%r4
 392 035c 7C7E1B78 		mr %r30,%r3
 393              		.loc 1 154 0 discriminator 2
 394 0360 7C7BC02E 		lwzx %r3,%r27,%r24
 395              		.loc 1 153 0 discriminator 2
 396 0364 10741AC8 		efsmul %r3,%r20,%r3
 397 0368 48000001 		bl __extendsfdf2
 398              	.LVL40:
 399 036c 7C862378 		mr %r6,%r4
 400 0370 7C651B78 		mr %r5,%r3
 401 0374 7FC3F378 		mr %r3,%r30
 402 0378 7FE4FB78 		mr %r4,%r31
 403 037c 48000001 		bl __adddf3
 404              	.LVL41:
 405 0380 48000001 		bl __truncdfsf2
 406              	.LVL42:
 407 0384 392100A8 		addi %r9,%r1,168
 408 0388 7C69C12E 		stwx %r3,%r9,%r24
 409              		.loc 1 152 0 discriminator 2
 410 038c 2F98009C 		cmpwi %cr7,%r24,156
 411 0390 3B180004 		addi %r24,%r24,4
 412 0394 40FEFF80 		bne+ %cr7,.L11
 413              		.loc 1 160 0
 414 0398 7C3E0B78 		mr %r30,%r1
 415 039c 87BE00A8 		lwzu %r29,168(%r30)
 416              	.LVL43:
 417              		.loc 1 117 0
 418 03a0 3B810144 		addi %r28,%r1,324
 419              	.LVL44:
 420              	.L13:
 421              		.loc 1 162 0
 422 03a4 87FE0004 		lwzu %r31,4(%r30)
 423 03a8 139FEACC 		efscmpgt %cr7,%r31,%r29
 424 03ac 131FEACE 		efscmpeq %cr6,%r31,%r29
 425 03b0 4FBDCB82 		cror 4*%cr7+gt,4*%cr7+gt,4*%cr6+gt
 426 03b4 41FD0018 		bgt+ %cr7,.L12
 427              		.loc 1 162 0 is_stmt 0 discriminator 1
 428 03b8 7FE3FB78 		mr %r3,%r31
 429 03bc 48000001 		bl rtIsNaN
 430              	.LVL45:
 431 03c0 2F830000 		cmpwi %cr7,%r3,0
 432 03c4 40DE0008 		bne- %cr7,.L12
 433              		.loc 1 163 0 is_stmt 1
 434 03c8 7FFDFB78 		mr %r29,%r31
 435              	.LVL46:
 436              	.L12:
 437              		.loc 1 161 0 discriminator 1
 438 03cc 7F9EE000 		cmpw %cr7,%r30,%r28
 439 03d0 40FEFFD4 		bne+ %cr7,.L13
 440              		.loc 1 171 0
 441 03d4 139DAACC 		efscmpgt %cr7,%r29,%r21
 442 03d8 131DAACE 		efscmpeq %cr6,%r29,%r21
 443 03dc 4FBDCB82 		cror 4*%cr7+gt,4*%cr7+gt,4*%cr6+gt
 444 03e0 41FD0018 		bgt+ %cr7,.L17
 445              		.loc 1 171 0 is_stmt 0 discriminator 1
 446 03e4 7FA3EB78 		mr %r3,%r29
 447 03e8 48000001 		bl rtIsNaN
 448              	.LVL47:
 449 03ec 2F830000 		cmpwi %cr7,%r3,0
 450 03f0 40FE0010 		bne+ %cr7,.L18
 451 03f4 48000010 		b .L14
 452              	.L17:
 453              		.loc 1 171 0
 454 03f8 7EFDBB78 		mr %r29,%r23
 455              	.LVL48:
 456 03fc 48000008 		b .L14
 457              	.LVL49:
 458              	.L18:
 459 0400 7EFDBB78 		mr %r29,%r23
 460              	.LVL50:
 461              	.L14:
 462              		.loc 1 178 0 is_stmt 1
 463 0404 3D2042C8 		lis %r9,0x42c8
 464 0408 13BD4AC8 		efsmul %r29,%r29,%r9
 465              	.LVL51:
 466 040c 93B90000 		stw %r29,0(%r25)
 467              		.loc 1 183 0
 468 0410 7F63DB78 		mr %r3,%r27
 469 0414 388100A8 		addi %r4,%r1,168
 470 0418 38A000A0 		li %r5,160
 471 041c 48000001 		bl memcpy
 472              	.LVL52:
 473              		.loc 1 188 0
 474 0420 387B00A0 		addi %r3,%r27,160
 475 0424 38810008 		addi %r4,%r1,8
 476 0428 38A000A0 		li %r5,160
 477 042c 48000001 		bl memcpy
 478              	.LVL53:
 479              		.loc 1 189 0
 480 0430 8001017C 		lwz %r0,380(%r1)
 481 0434 7C0803A6 		mtlr %r0
 482 0438 82810148 		lwz %r20,328(%r1)
 483 043c 82A1014C 		lwz %r21,332(%r1)
 484              	.LVL54:
 485 0440 82C10150 		lwz %r22,336(%r1)
 486 0444 82E10154 		lwz %r23,340(%r1)
 487              	.LVL55:
 488 0448 83010158 		lwz %r24,344(%r1)
 489 044c 8321015C 		lwz %r25,348(%r1)
 490              	.LVL56:
 491 0450 83410160 		lwz %r26,352(%r1)
 492              	.LVL57:
 493 0454 83610164 		lwz %r27,356(%r1)
 494              	.LVL58:
 495 0458 83810168 		lwz %r28,360(%r1)
 496 045c 83A1016C 		lwz %r29,364(%r1)
 497 0460 83C10170 		lwz %r30,368(%r1)
 498 0464 83E10174 		lwz %r31,372(%r1)
 499 0468 38210178 		addi %r1,%r1,376
 500              	.LCFI5:
 501              		.cfi_restore 31
 502              		.cfi_restore 30
 503              		.cfi_restore 29
 504              		.cfi_restore 28
 505              		.cfi_restore 27
 506              		.cfi_restore 26
 507              		.cfi_restore 25
 508              		.cfi_restore 24
 509              		.cfi_restore 23
 510              		.cfi_restore 22
 511              		.cfi_restore 21
 512              		.cfi_restore 20
 513              		.cfi_restore 65
 514              		.cfi_def_cfa_offset 0
 515 046c 4E800020 		blr
 516              		.cfi_endproc
 517              	.LFE2:
 518              		.size	soh_key_on, .-soh_key_on
 519              		.align 2
 520              		.globl soh_SOH_Start
 521              		.type	soh_SOH_Start, @function
 522              	soh_SOH_Start:
 523              	.LFB3:
 524              		.loc 1 193 0
 525              		.cfi_startproc
 526              	.LVL59:
 527              		.loc 1 196 0
 528 0470 39200001 		li %r9,1
 529 0474 992300A0 		stb %r9,160(%r3)
 530 0478 4E800020 		blr
 531              		.cfi_endproc
 532              	.LFE3:
 533              		.size	soh_SOH_Start, .-soh_SOH_Start
 534              		.align 2
 535              		.globl soh_SOH
 536              		.type	soh_SOH, @function
 537              	soh_SOH:
 538              	.LFB4:
 539              		.loc 1 208 0
 540              		.cfi_startproc
 541              	.LVL60:
 542 047c 9421FE30 		stwu %r1,-464(%r1)
 543              	.LCFI6:
 544              		.cfi_def_cfa_offset 464
 545 0480 7C0802A6 		mflr %r0
 546 0484 900101D4 		stw %r0,468(%r1)
 547 0488 7D800026 		mfcr %r12
 548 048c 91E1018C 		stw %r15,396(%r1)
 549 0490 92010190 		stw %r16,400(%r1)
 550 0494 92210194 		stw %r17,404(%r1)
 551 0498 92410198 		stw %r18,408(%r1)
 552 049c 9261019C 		stw %r19,412(%r1)
 553 04a0 928101A0 		stw %r20,416(%r1)
 554 04a4 92A101A4 		stw %r21,420(%r1)
 555 04a8 92C101A8 		stw %r22,424(%r1)
 556 04ac 92E101AC 		stw %r23,428(%r1)
 557 04b0 930101B0 		stw %r24,432(%r1)
 558 04b4 932101B4 		stw %r25,436(%r1)
 559 04b8 934101B8 		stw %r26,440(%r1)
 560 04bc 936101BC 		stw %r27,444(%r1)
 561 04c0 938101C0 		stw %r28,448(%r1)
 562 04c4 93A101C4 		stw %r29,452(%r1)
 563 04c8 93C101C8 		stw %r30,456(%r1)
 564 04cc 93E101CC 		stw %r31,460(%r1)
 565 04d0 91810188 		stw %r12,392(%r1)
 566              		.cfi_offset 65, 4
 567              		.cfi_offset 70, -72
 568              		.cfi_offset 15, -68
 569              		.cfi_offset 16, -64
 570              		.cfi_offset 17, -60
 571              		.cfi_offset 18, -56
 572              		.cfi_offset 19, -52
 573              		.cfi_offset 20, -48
 574              		.cfi_offset 21, -44
 575              		.cfi_offset 22, -40
 576              		.cfi_offset 23, -36
 577              		.cfi_offset 24, -32
 578              		.cfi_offset 25, -28
 579              		.cfi_offset 26, -24
 580              		.cfi_offset 27, -20
 581              		.cfi_offset 28, -16
 582              		.cfi_offset 29, -12
 583              		.cfi_offset 30, -8
 584              		.cfi_offset 31, -4
 585 04d4 7C761B78 		mr %r22,%r3
 586 04d8 7C952378 		mr %r21,%r4
 587 04dc 7CB42B78 		mr %r20,%r5
 588 04e0 90C10134 		stw %r6,308(%r1)
 589 04e4 7CF13B78 		mr %r17,%r7
 590 04e8 91010138 		stw %r8,312(%r1)
 591 04ec 9121013C 		stw %r9,316(%r1)
 592 04f0 7D4F5378 		mr %r15,%r10
 593 04f4 832101E0 		lwz %r25,480(%r1)
 594              	.LVL61:
 595              		.loc 1 202 0
 596 04f8 3943FFFC 		addi %r10,%r3,-4
 597              	.LVL62:
 598 04fc 38A4FFFC 		addi %r5,%r4,-4
 599              	.LVL63:
 600 0500 7D465378 		mr %r6,%r10
 601              	.LVL64:
 602              		.loc 1 218 0
 603 0504 39200000 		li %r9,0
 604              	.LVL65:
 605              		.loc 1 222 0
 606 0508 38E00000 		li %r7,0
 607              	.LVL66:
 608 050c 38800028 		li %r4,40
 609              	.LVL67:
 610 0510 7C8903A6 		mtctr %r4
 611              	.LVL68:
 612              	.L26:
 613              		.loc 1 222 0 is_stmt 0 discriminator 2
 614 0514 85060004 		lwzu %r8,4(%r6)
 615 0518 13883ACC 		efscmpgt %cr7,%r8,%r7
 616 051c 7C800026 		mfcr %r4
 617 0520 5484F7FE 		rlwinm %r4,%r4,30,31,31
 618 0524 39010008 		addi %r8,%r1,8
 619 0528 7C8941AE 		stbx %r4,%r9,%r8
 620              		.loc 1 227 0 is_stmt 1 discriminator 2
 621 052c 85050004 		lwzu %r8,4(%r5)
 622 0530 13883ACC 		efscmpgt %cr7,%r8,%r7
 623 0534 7C800026 		mfcr %r4
 624 0538 5484F7FE 		rlwinm %r4,%r4,30,31,31
 625 053c 39010030 		addi %r8,%r1,48
 626 0540 7C8941AE 		stbx %r4,%r9,%r8
 627              		.loc 1 218 0 discriminator 2
 628 0544 39290001 		addi %r9,%r9,1
 629              	.LVL69:
 630 0548 4200FFCC 		bdnz .L26
 631              		.loc 1 233 0
 632 054c 88A10030 		lbz %r5,48(%r1)
 633 0550 88C10031 		lbz %r6,49(%r1)
 634              		.loc 1 234 0
 635 0554 89810032 		lbz %r12,50(%r1)
 636 0558 88E10033 		lbz %r7,51(%r1)
 637 055c 90E10128 		stw %r7,296(%r1)
 638              		.loc 1 235 0
 639 0560 8A010034 		lbz %r16,52(%r1)
 640 0564 89010035 		lbz %r8,53(%r1)
 641 0568 9101012C 		stw %r8,300(%r1)
 642              		.loc 1 236 0
 643 056c 8A410036 		lbz %r18,54(%r1)
 644 0570 8A610037 		lbz %r19,55(%r1)
 645              		.loc 1 237 0
 646 0574 8AE10038 		lbz %r23,56(%r1)
 647 0578 8B010039 		lbz %r24,57(%r1)
 648              		.loc 1 238 0
 649 057c 8B41003A 		lbz %r26,58(%r1)
 650 0580 8B61003B 		lbz %r27,59(%r1)
 651              		.loc 1 239 0
 652 0584 8B81003C 		lbz %r28,60(%r1)
 653 0588 8BA1003D 		lbz %r29,61(%r1)
 654              		.loc 1 240 0
 655 058c 8BC1003E 		lbz %r30,62(%r1)
 656 0590 8BE1003F 		lbz %r31,63(%r1)
 657              		.loc 1 241 0
 658 0594 88010040 		lbz %r0,64(%r1)
 659 0598 89610041 		lbz %r11,65(%r1)
 660              		.loc 1 242 0
 661 059c 88610042 		lbz %r3,66(%r1)
 662              	.LVL70:
 663 05a0 88810043 		lbz %r4,67(%r1)
 664              		.loc 1 243 0
 665 05a4 88E10044 		lbz %r7,68(%r1)
 666 05a8 89210045 		lbz %r9,69(%r1)
 667              	.LVL71:
 668 05ac 91210140 		stw %r9,320(%r1)
 669              		.loc 1 244 0
 670 05b0 89010046 		lbz %r8,70(%r1)
 671 05b4 91010144 		stw %r8,324(%r1)
 672 05b8 89210047 		lbz %r9,71(%r1)
 673 05bc 91210148 		stw %r9,328(%r1)
 674              		.loc 1 245 0
 675 05c0 89010048 		lbz %r8,72(%r1)
 676 05c4 9101014C 		stw %r8,332(%r1)
 677 05c8 89210049 		lbz %r9,73(%r1)
 678 05cc 91210150 		stw %r9,336(%r1)
 679              		.loc 1 246 0
 680 05d0 8901004A 		lbz %r8,74(%r1)
 681 05d4 91010154 		stw %r8,340(%r1)
 682 05d8 8921004B 		lbz %r9,75(%r1)
 683 05dc 91210158 		stw %r9,344(%r1)
 684              		.loc 1 247 0
 685 05e0 8901004C 		lbz %r8,76(%r1)
 686 05e4 9101015C 		stw %r8,348(%r1)
 687 05e8 8921004D 		lbz %r9,77(%r1)
 688 05ec 91210160 		stw %r9,352(%r1)
 689              		.loc 1 248 0
 690 05f0 8901004E 		lbz %r8,78(%r1)
 691 05f4 91010164 		stw %r8,356(%r1)
 692 05f8 8921004F 		lbz %r9,79(%r1)
 693 05fc 91210168 		stw %r9,360(%r1)
 694              		.loc 1 249 0
 695 0600 89010050 		lbz %r8,80(%r1)
 696 0604 9101016C 		stw %r8,364(%r1)
 697 0608 89210051 		lbz %r9,81(%r1)
 698 060c 91210170 		stw %r9,368(%r1)
 699              		.loc 1 250 0
 700 0610 89010052 		lbz %r8,82(%r1)
 701 0614 91010174 		stw %r8,372(%r1)
 702 0618 89210053 		lbz %r9,83(%r1)
 703 061c 91210178 		stw %r9,376(%r1)
 704              		.loc 1 251 0
 705 0620 89010054 		lbz %r8,84(%r1)
 706 0624 9101017C 		stw %r8,380(%r1)
 707 0628 89210055 		lbz %r9,85(%r1)
 708 062c 91210180 		stw %r9,384(%r1)
 709              		.loc 1 252 0
 710 0630 89010056 		lbz %r8,86(%r1)
 711 0634 91010130 		stw %r8,304(%r1)
 712 0638 89010057 		lbz %r8,87(%r1)
 713 063c 39200000 		li %r9,0
 714              		.loc 1 232 0
 715 0640 2D050000 		cmpwi %cr2,%r5,0
 716              		.loc 1 233 0
 717 0644 2D860000 		cmpwi %cr3,%r6,0
 718 0648 2E0C0000 		cmpwi %cr4,%r12,0
 719              		.loc 1 234 0
 720 064c 80C10128 		lwz %r6,296(%r1)
 721 0650 2C860000 		cmpwi %cr1,%r6,0
 722 0654 2F100000 		cmpwi %cr6,%r16,0
 723              		.loc 1 235 0
 724 0658 80C1012C 		lwz %r6,300(%r1)
 725 065c 2F860000 		cmpwi %cr7,%r6,0
 726 0660 2C120000 		cmpwi %cr0,%r18,0
 727 0664 7E400026 		mfcr %r18
 728              		.loc 1 236 0
 729 0668 2C130000 		cmpwi %cr0,%r19,0
 730 066c 7E600026 		mfcr %r19
 731 0670 2C170000 		cmpwi %cr0,%r23,0
 732 0674 7EE00026 		mfcr %r23
 733              		.loc 1 237 0
 734 0678 2C180000 		cmpwi %cr0,%r24,0
 735 067c 7F000026 		mfcr %r24
 736 0680 2C1A0000 		cmpwi %cr0,%r26,0
 737 0684 7F400026 		mfcr %r26
 738              		.loc 1 238 0
 739 0688 2C1B0000 		cmpwi %cr0,%r27,0
 740 068c 7F600026 		mfcr %r27
 741 0690 2C1C0000 		cmpwi %cr0,%r28,0
 742 0694 7F800026 		mfcr %r28
 743              		.loc 1 239 0
 744 0698 2C1D0000 		cmpwi %cr0,%r29,0
 745 069c 7FA00026 		mfcr %r29
 746 06a0 2C1E0000 		cmpwi %cr0,%r30,0
 747 06a4 7FC00026 		mfcr %r30
 748              		.loc 1 240 0
 749 06a8 2C1F0000 		cmpwi %cr0,%r31,0
 750 06ac 7E000026 		mfcr %r16
 751 06b0 2C000000 		cmpwi %cr0,%r0,0
 752 06b4 7FE00026 		mfcr %r31
 753              		.loc 1 241 0
 754 06b8 2C0B0000 		cmpwi %cr0,%r11,0
 755 06bc 7C000026 		mfcr %r0
 756 06c0 2C030000 		cmpwi %cr0,%r3,0
 757 06c4 7D600026 		mfcr %r11
 758              		.loc 1 242 0
 759 06c8 2C040000 		cmpwi %cr0,%r4,0
 760 06cc 7CA00026 		mfcr %r5
 761 06d0 2C070000 		cmpwi %cr0,%r7,0
 762 06d4 7CC00026 		mfcr %r6
 763              		.loc 1 252 0
 764 06d8 7D0800D0 		neg %r8,%r8
 765 06dc 55070FFE 		srwi %r7,%r8,31
 766 06e0 38800028 		li %r4,40
 767 06e4 7C8903A6 		mtctr %r4
 768              	.L28:
 769              		.loc 1 202 0
 770 06e8 7D234B78 		mr %r3,%r9
 771              		.loc 1 252 0
 772 06ec 39010008 		addi %r8,%r1,8
 773 06f0 7C8848AE 		lbzx %r4,%r8,%r9
 774 06f4 39000000 		li %r8,0
 775 06f8 2C040000 		cmpwi %cr0,%r4,0
 776 06fc 41C2016C 		beq- %cr0,.L27
 777              		.loc 1 232 0
 778 0700 41CA0168 		beq- %cr2,.L27
 779              		.loc 1 233 0
 780 0704 41CE0164 		beq- %cr3,.L27
 781              		.loc 1 233 0 is_stmt 0 discriminator 1
 782 0708 41D20160 		beq- %cr4,.L27
 783              		.loc 1 234 0 is_stmt 1
 784 070c 41C6015C 		beq- %cr1,.L27
 785              		.loc 1 234 0 is_stmt 0 discriminator 1
 786 0710 41DA0158 		beq- %cr6,.L27
 787              		.loc 1 235 0 is_stmt 1
 788 0714 41DE0154 		beq- %cr7,.L27
 789              		.loc 1 235 0 is_stmt 0 discriminator 1
 790 0718 7E480120 		mtcrf 128,%r18
 791 071c 41C2014C 		beq- %cr0,.L27
 792              		.loc 1 236 0 is_stmt 1
 793 0720 7E680120 		mtcrf 128,%r19
 794 0724 41C20144 		beq- %cr0,.L27
 795              		.loc 1 236 0 is_stmt 0 discriminator 1
 796 0728 7EE80120 		mtcrf 128,%r23
 797 072c 41C2013C 		beq- %cr0,.L27
 798              		.loc 1 237 0 is_stmt 1
 799 0730 7F080120 		mtcrf 128,%r24
 800 0734 41C20134 		beq- %cr0,.L27
 801              		.loc 1 237 0 is_stmt 0 discriminator 1
 802 0738 7F480120 		mtcrf 128,%r26
 803 073c 41C2012C 		beq- %cr0,.L27
 804              		.loc 1 238 0 is_stmt 1
 805 0740 7F680120 		mtcrf 128,%r27
 806 0744 41C20124 		beq- %cr0,.L27
 807              		.loc 1 238 0 is_stmt 0 discriminator 1
 808 0748 7F880120 		mtcrf 128,%r28
 809 074c 41C2011C 		beq- %cr0,.L27
 810              		.loc 1 239 0 is_stmt 1
 811 0750 7FA80120 		mtcrf 128,%r29
 812 0754 41C20114 		beq- %cr0,.L27
 813              		.loc 1 239 0 is_stmt 0 discriminator 1
 814 0758 7FC80120 		mtcrf 128,%r30
 815 075c 41C2010C 		beq- %cr0,.L27
 816              		.loc 1 240 0 is_stmt 1
 817 0760 7E080120 		mtcrf 128,%r16
 818 0764 41C20104 		beq- %cr0,.L27
 819              		.loc 1 240 0 is_stmt 0 discriminator 1
 820 0768 7FE80120 		mtcrf 128,%r31
 821 076c 41C200FC 		beq- %cr0,.L27
 822              		.loc 1 241 0 is_stmt 1
 823 0770 7C080120 		mtcrf 128,%r0
 824 0774 41C200F4 		beq- %cr0,.L27
 825              		.loc 1 241 0 is_stmt 0 discriminator 1
 826 0778 7D680120 		mtcrf 128,%r11
 827 077c 41C200EC 		beq- %cr0,.L27
 828              		.loc 1 242 0 is_stmt 1
 829 0780 7CA80120 		mtcrf 128,%r5
 830 0784 41C200E4 		beq- %cr0,.L27
 831              		.loc 1 242 0 is_stmt 0 discriminator 1
 832 0788 7CC80120 		mtcrf 128,%r6
 833 078c 41C200DC 		beq- %cr0,.L27
 834              		.loc 1 243 0 is_stmt 1
 835 0790 80810140 		lwz %r4,320(%r1)
 836 0794 2C040000 		cmpwi %cr0,%r4,0
 837 0798 41C200D0 		beq- %cr0,.L27
 838              		.loc 1 243 0 is_stmt 0 discriminator 1
 839 079c 80810144 		lwz %r4,324(%r1)
 840 07a0 2C040000 		cmpwi %cr0,%r4,0
 841 07a4 41C200C4 		beq- %cr0,.L27
 842              		.loc 1 244 0 is_stmt 1
 843 07a8 80810148 		lwz %r4,328(%r1)
 844 07ac 2C040000 		cmpwi %cr0,%r4,0
 845 07b0 41C200B8 		beq- %cr0,.L27
 846              		.loc 1 244 0 is_stmt 0 discriminator 1
 847 07b4 8081014C 		lwz %r4,332(%r1)
 848 07b8 2C040000 		cmpwi %cr0,%r4,0
 849 07bc 41C200AC 		beq- %cr0,.L27
 850              		.loc 1 245 0 is_stmt 1
 851 07c0 80810150 		lwz %r4,336(%r1)
 852 07c4 2C040000 		cmpwi %cr0,%r4,0
 853 07c8 41C200A0 		beq- %cr0,.L27
 854              		.loc 1 245 0 is_stmt 0 discriminator 1
 855 07cc 80810154 		lwz %r4,340(%r1)
 856 07d0 2C040000 		cmpwi %cr0,%r4,0
 857 07d4 41C20094 		beq- %cr0,.L27
 858              		.loc 1 246 0 is_stmt 1
 859 07d8 80810158 		lwz %r4,344(%r1)
 860 07dc 2C040000 		cmpwi %cr0,%r4,0
 861 07e0 41C20088 		beq- %cr0,.L27
 862              		.loc 1 246 0 is_stmt 0 discriminator 1
 863 07e4 8081015C 		lwz %r4,348(%r1)
 864 07e8 2C040000 		cmpwi %cr0,%r4,0
 865 07ec 41C2007C 		beq- %cr0,.L27
 866              		.loc 1 247 0 is_stmt 1
 867 07f0 80810160 		lwz %r4,352(%r1)
 868 07f4 2C040000 		cmpwi %cr0,%r4,0
 869 07f8 41C20070 		beq- %cr0,.L27
 870              		.loc 1 247 0 is_stmt 0 discriminator 1
 871 07fc 80810164 		lwz %r4,356(%r1)
 872 0800 2C040000 		cmpwi %cr0,%r4,0
 873 0804 41C20064 		beq- %cr0,.L27
 874              		.loc 1 248 0 is_stmt 1
 875 0808 80810168 		lwz %r4,360(%r1)
 876 080c 2C040000 		cmpwi %cr0,%r4,0
 877 0810 41C20058 		beq- %cr0,.L27
 878              		.loc 1 248 0 is_stmt 0 discriminator 1
 879 0814 8081016C 		lwz %r4,364(%r1)
 880 0818 2C040000 		cmpwi %cr0,%r4,0
 881 081c 41C2004C 		beq- %cr0,.L27
 882              		.loc 1 249 0 is_stmt 1
 883 0820 80810170 		lwz %r4,368(%r1)
 884 0824 2C040000 		cmpwi %cr0,%r4,0
 885 0828 41C20040 		beq- %cr0,.L27
 886              		.loc 1 249 0 is_stmt 0 discriminator 1
 887 082c 80810174 		lwz %r4,372(%r1)
 888 0830 2C040000 		cmpwi %cr0,%r4,0
 889 0834 41C20034 		beq- %cr0,.L27
 890              		.loc 1 250 0 is_stmt 1
 891 0838 80810178 		lwz %r4,376(%r1)
 892 083c 2C040000 		cmpwi %cr0,%r4,0
 893 0840 41C20028 		beq- %cr0,.L27
 894              		.loc 1 250 0 is_stmt 0 discriminator 1
 895 0844 8081017C 		lwz %r4,380(%r1)
 896 0848 2C040000 		cmpwi %cr0,%r4,0
 897 084c 41C2001C 		beq- %cr0,.L27
 898              		.loc 1 251 0 is_stmt 1
 899 0850 80810180 		lwz %r4,384(%r1)
 900 0854 2C040000 		cmpwi %cr0,%r4,0
 901 0858 41C20010 		beq- %cr0,.L27
 902              		.loc 1 252 0 discriminator 1
 903 085c 81010130 		lwz %r8,304(%r1)
 904 0860 2C080000 		cmpwi %cr0,%r8,0
 905 0864 7D00389E 		isel %r8,0,%r7,2
 906              	.L27:
 907              		.loc 1 232 0
 908 0868 38810058 		addi %r4,%r1,88
 909 086c 7D0321AE 		stbx %r8,%r3,%r4
 910              		.loc 1 231 0
 911 0870 39290001 		addi %r9,%r9,1
 912              	.LVL72:
 913 0874 4200FE74 		bdnz .L28
 914 0878 3921002F 		addi %r9,%r1,47
 915              	.LVL73:
 916              		.loc 1 259 0
 917 087c 38A00000 		li %r5,0
 918 0880 38C00001 		li %r6,1
 919 0884 38800028 		li %r4,40
 920 0888 7C8903A6 		mtctr %r4
 921              	.LVL74:
 922              	.L29:
 923              		.loc 1 259 0 is_stmt 0 discriminator 2
 924 088c 8D090001 		lbzu %r8,1(%r9)
 925 0890 2F880000 		cmpwi %cr7,%r8,0
 926 0894 7D062F9E 		isel %r8,%r6,%r5,30
 927 0898 99090000 		stb %r8,0(%r9)
 928              		.loc 1 258 0 is_stmt 1 discriminator 2
 929 089c 4200FFF0 		bdnz .L29
 930              		.loc 1 275 0
 931 08a0 88A10030 		lbz %r5,48(%r1)
 932 08a4 88C10031 		lbz %r6,49(%r1)
 933              		.loc 1 276 0
 934 08a8 88E10032 		lbz %r7,50(%r1)
 935 08ac 90E10128 		stw %r7,296(%r1)
 936 08b0 8A010033 		lbz %r16,51(%r1)
 937              		.loc 1 277 0
 938 08b4 89810034 		lbz %r12,52(%r1)
 939 08b8 89010035 		lbz %r8,53(%r1)
 940 08bc 9101012C 		stw %r8,300(%r1)
 941              		.loc 1 278 0
 942 08c0 8A410036 		lbz %r18,54(%r1)
 943 08c4 8A610037 		lbz %r19,55(%r1)
 944              		.loc 1 279 0
 945 08c8 8AE10038 		lbz %r23,56(%r1)
 946 08cc 8B010039 		lbz %r24,57(%r1)
 947              		.loc 1 280 0
 948 08d0 8B41003A 		lbz %r26,58(%r1)
 949 08d4 8B61003B 		lbz %r27,59(%r1)
 950              		.loc 1 281 0
 951 08d8 8B81003C 		lbz %r28,60(%r1)
 952 08dc 8BA1003D 		lbz %r29,61(%r1)
 953              		.loc 1 282 0
 954 08e0 8BC1003E 		lbz %r30,62(%r1)
 955 08e4 8BE1003F 		lbz %r31,63(%r1)
 956              		.loc 1 283 0
 957 08e8 88010040 		lbz %r0,64(%r1)
 958 08ec 89610041 		lbz %r11,65(%r1)
 959              		.loc 1 284 0
 960 08f0 88610042 		lbz %r3,66(%r1)
 961 08f4 88810043 		lbz %r4,67(%r1)
 962              		.loc 1 285 0
 963 08f8 89210044 		lbz %r9,68(%r1)
 964 08fc 91210140 		stw %r9,320(%r1)
 965 0900 88E10045 		lbz %r7,69(%r1)
 966 0904 90E10144 		stw %r7,324(%r1)
 967              		.loc 1 286 0
 968 0908 89010046 		lbz %r8,70(%r1)
 969 090c 91010148 		stw %r8,328(%r1)
 970 0910 89210047 		lbz %r9,71(%r1)
 971 0914 9121014C 		stw %r9,332(%r1)
 972              		.loc 1 287 0
 973 0918 88E10048 		lbz %r7,72(%r1)
 974 091c 90E10150 		stw %r7,336(%r1)
 975 0920 89010049 		lbz %r8,73(%r1)
 976 0924 91010154 		stw %r8,340(%r1)
 977              		.loc 1 288 0
 978 0928 8921004A 		lbz %r9,74(%r1)
 979 092c 91210158 		stw %r9,344(%r1)
 980 0930 88E1004B 		lbz %r7,75(%r1)
 981 0934 90E1015C 		stw %r7,348(%r1)
 982              		.loc 1 289 0
 983 0938 8901004C 		lbz %r8,76(%r1)
 984 093c 91010160 		stw %r8,352(%r1)
 985 0940 8921004D 		lbz %r9,77(%r1)
 986 0944 91210164 		stw %r9,356(%r1)
 987              		.loc 1 290 0
 988 0948 88E1004E 		lbz %r7,78(%r1)
 989 094c 90E10168 		stw %r7,360(%r1)
 990 0950 8901004F 		lbz %r8,79(%r1)
 991 0954 9101016C 		stw %r8,364(%r1)
 992              		.loc 1 291 0
 993 0958 89210050 		lbz %r9,80(%r1)
 994 095c 91210170 		stw %r9,368(%r1)
 995 0960 88E10051 		lbz %r7,81(%r1)
 996 0964 90E10174 		stw %r7,372(%r1)
 997              		.loc 1 292 0
 998 0968 89010052 		lbz %r8,82(%r1)
 999 096c 91010178 		stw %r8,376(%r1)
 1000 0970 89210053 		lbz %r9,83(%r1)
 1001 0974 9121017C 		stw %r9,380(%r1)
 1002              		.loc 1 293 0
 1003 0978 88E10054 		lbz %r7,84(%r1)
 1004 097c 90E10180 		stw %r7,384(%r1)
 1005 0980 89010055 		lbz %r8,85(%r1)
 1006 0984 91010184 		stw %r8,388(%r1)
 1007              		.loc 1 294 0
 1008 0988 89210056 		lbz %r9,86(%r1)
 1009 098c 91210130 		stw %r9,304(%r1)
 1010 0990 88E10057 		lbz %r7,87(%r1)
 1011 0994 39200000 		li %r9,0
 1012              		.loc 1 273 0
 1013 0998 3D000000 		lis %r8,sohc_current_threshold@ha
 1014              		.loc 1 274 0
 1015 099c 2C050000 		cmpwi %cr0,%r5,0
 1016              		.loc 1 275 0
 1017 09a0 2F060000 		cmpwi %cr6,%r6,0
 1018 09a4 80C10128 		lwz %r6,296(%r1)
 1019 09a8 2F860000 		cmpwi %cr7,%r6,0
 1020              		.loc 1 276 0
 1021 09ac 2C900000 		cmpwi %cr1,%r16,0
 1022 09b0 7E000026 		mfcr %r16
 1023 09b4 56102006 		rlwinm %r16,%r16,4,0xf0000000
 1024 09b8 2C8C0000 		cmpwi %cr1,%r12,0
 1025 09bc 7D800026 		mfcr %r12
 1026 09c0 558C2006 		rlwinm %r12,%r12,4,0xf0000000
 1027              		.loc 1 277 0
 1028 09c4 80C1012C 		lwz %r6,300(%r1)
 1029 09c8 2C860000 		cmpwi %cr1,%r6,0
 1030 09cc 7CC00026 		mfcr %r6
 1031 09d0 54C62006 		rlwinm %r6,%r6,4,0xf0000000
 1032 09d4 7CC803A6 		mtlr %r6
 1033 09d8 2C920000 		cmpwi %cr1,%r18,0
 1034 09dc 7E400026 		mfcr %r18
 1035 09e0 56522006 		rlwinm %r18,%r18,4,0xf0000000
 1036              		.loc 1 278 0
 1037 09e4 2C930000 		cmpwi %cr1,%r19,0
 1038 09e8 7E600026 		mfcr %r19
 1039 09ec 56732006 		rlwinm %r19,%r19,4,0xf0000000
 1040 09f0 2C970000 		cmpwi %cr1,%r23,0
 1041 09f4 7EE00026 		mfcr %r23
 1042 09f8 56F72006 		rlwinm %r23,%r23,4,0xf0000000
 1043              		.loc 1 279 0
 1044 09fc 2C980000 		cmpwi %cr1,%r24,0
 1045 0a00 7F000026 		mfcr %r24
 1046 0a04 57182006 		rlwinm %r24,%r24,4,0xf0000000
 1047 0a08 2C9A0000 		cmpwi %cr1,%r26,0
 1048 0a0c 7F400026 		mfcr %r26
 1049 0a10 575A2006 		rlwinm %r26,%r26,4,0xf0000000
 1050              		.loc 1 280 0
 1051 0a14 2C9B0000 		cmpwi %cr1,%r27,0
 1052 0a18 7F600026 		mfcr %r27
 1053 0a1c 577B2006 		rlwinm %r27,%r27,4,0xf0000000
 1054 0a20 2C9C0000 		cmpwi %cr1,%r28,0
 1055 0a24 7F800026 		mfcr %r28
 1056 0a28 579C2006 		rlwinm %r28,%r28,4,0xf0000000
 1057              		.loc 1 281 0
 1058 0a2c 2C9D0000 		cmpwi %cr1,%r29,0
 1059 0a30 7FA00026 		mfcr %r29
 1060 0a34 57BD2006 		rlwinm %r29,%r29,4,0xf0000000
 1061 0a38 2D1E0000 		cmpwi %cr2,%r30,0
 1062              		.loc 1 282 0
 1063 0a3c 2D9F0000 		cmpwi %cr3,%r31,0
 1064 0a40 2C800000 		cmpwi %cr1,%r0,0
 1065 0a44 7C000026 		mfcr %r0
 1066 0a48 54002006 		rlwinm %r0,%r0,4,0xf0000000
 1067              		.loc 1 283 0
 1068 0a4c 2C8B0000 		cmpwi %cr1,%r11,0
 1069 0a50 7D600026 		mfcr %r11
 1070 0a54 556B2006 		rlwinm %r11,%r11,4,0xf0000000
 1071 0a58 2C830000 		cmpwi %cr1,%r3,0
 1072 0a5c 7CA00026 		mfcr %r5
 1073 0a60 54A52006 		rlwinm %r5,%r5,4,0xf0000000
 1074              		.loc 1 284 0
 1075 0a64 2C840000 		cmpwi %cr1,%r4,0
 1076 0a68 7CC00026 		mfcr %r6
 1077 0a6c 54C62006 		rlwinm %r6,%r6,4,0xf0000000
 1078              		.loc 1 294 0
 1079 0a70 7CE700D0 		neg %r7,%r7
 1080 0a74 54E70FFE 		srwi %r7,%r7,31
 1081 0a78 38800028 		li %r4,40
 1082 0a7c 7C8903A6 		mtctr %r4
 1083 0a80 5610803E 		rlwinm %r16,%r16,16,0xffffffff
 1084 0a84 7E008120 		mtcrf 8,%r16
 1085 0a88 5610803E 		rlwinm %r16,%r16,16,0xffffffff
 1086 0a8c 7FE802A6 		mflr %r31
 1087 0a90 7FC00026 		mfcr %r30
 1088 0a94 57DE6006 		rlwinm %r30,%r30,12,0xf0000000
 1089 0a98 7CE33B78 		mr %r3,%r7
 1090              	.L32:
 1091              		.loc 1 273 0
 1092 0a9c 80E80000 		lwz %r7,sohc_current_threshold@l(%r8)
 1093 0aa0 848A0004 		lwzu %r4,4(%r10)
 1094 0aa4 108402C4 		efsabs %r4,%r4
 1095 0aa8 10843ACC 		efscmpgt %cr1,%r4,%r7
 1096 0aac 11843ACE 		efscmpeq %cr3,%r4,%r7
 1097 0ab0 4CA56B82 		cror 4*%cr1+gt,4*%cr1+gt,4*%cr3+gt
 1098 0ab4 40C50218 		bng- %cr1,.L150
 1099              		.loc 1 273 0 is_stmt 0 discriminator 1
 1100 0ab8 38E10058 		addi %r7,%r1,88
 1101 0abc 7C8748AE 		lbzx %r4,%r7,%r9
 1102 0ac0 38E00001 		li %r7,1
 1103 0ac4 2C840000 		cmpwi %cr1,%r4,0
 1104 0ac8 40C60208 		bne- %cr1,.L30
 1105              		.loc 1 274 0 is_stmt 1
 1106 0acc 38E10008 		addi %r7,%r1,8
 1107 0ad0 7C8748AE 		lbzx %r4,%r7,%r9
 1108              		.loc 1 273 0
 1109 0ad4 38E00000 		li %r7,0
 1110              		.loc 1 274 0
 1111 0ad8 2C840000 		cmpwi %cr1,%r4,0
 1112 0adc 40C601F4 		bne- %cr1,.L30
 1113              		.loc 1 274 0 is_stmt 0 discriminator 1
 1114 0ae0 41C201F0 		beq- %cr0,.L30
 1115              		.loc 1 275 0 is_stmt 1
 1116 0ae4 41DA01EC 		beq- %cr6,.L30
 1117              		.loc 1 275 0 is_stmt 0 discriminator 1
 1118 0ae8 41DE01E8 		beq- %cr7,.L30
 1119              		.loc 1 276 0 is_stmt 1
 1120 0aec 41D201E4 		beq- %cr4,.L30
 1121              		.loc 1 276 0 is_stmt 0 discriminator 1
 1122 0af0 558CE03E 		rlwinm %r12,%r12,28,0xffffffff
 1123 0af4 7D840120 		mtcrf 64,%r12
 1124 0af8 558C203E 		rlwinm %r12,%r12,4,0xffffffff
 1125 0afc 41C601D4 		beq- %cr1,.L30
 1126              		.loc 1 277 0 is_stmt 1
 1127 0b00 57FFE03E 		rlwinm %r31,%r31,28,0xffffffff
 1128 0b04 7FE40120 		mtcrf 64,%r31
 1129 0b08 57FF203E 		rlwinm %r31,%r31,4,0xffffffff
 1130 0b0c 41C601C4 		beq- %cr1,.L30
 1131              		.loc 1 277 0 is_stmt 0 discriminator 1
 1132 0b10 5652E03E 		rlwinm %r18,%r18,28,0xffffffff
 1133 0b14 7E440120 		mtcrf 64,%r18
 1134 0b18 5652203E 		rlwinm %r18,%r18,4,0xffffffff
 1135 0b1c 41C601B4 		beq- %cr1,.L30
 1136              		.loc 1 278 0 is_stmt 1
 1137 0b20 5673E03E 		rlwinm %r19,%r19,28,0xffffffff
 1138 0b24 7E640120 		mtcrf 64,%r19
 1139 0b28 5673203E 		rlwinm %r19,%r19,4,0xffffffff
 1140 0b2c 41C601A4 		beq- %cr1,.L30
 1141              		.loc 1 278 0 is_stmt 0 discriminator 1
 1142 0b30 56F7E03E 		rlwinm %r23,%r23,28,0xffffffff
 1143 0b34 7EE40120 		mtcrf 64,%r23
 1144 0b38 56F7203E 		rlwinm %r23,%r23,4,0xffffffff
 1145 0b3c 41C60194 		beq- %cr1,.L30
 1146              		.loc 1 279 0 is_stmt 1
 1147 0b40 5718E03E 		rlwinm %r24,%r24,28,0xffffffff
 1148 0b44 7F040120 		mtcrf 64,%r24
 1149 0b48 5718203E 		rlwinm %r24,%r24,4,0xffffffff
 1150 0b4c 41C60184 		beq- %cr1,.L30
 1151              		.loc 1 279 0 is_stmt 0 discriminator 1
 1152 0b50 575AE03E 		rlwinm %r26,%r26,28,0xffffffff
 1153 0b54 7F440120 		mtcrf 64,%r26
 1154 0b58 575A203E 		rlwinm %r26,%r26,4,0xffffffff
 1155 0b5c 41C60174 		beq- %cr1,.L30
 1156              		.loc 1 280 0 is_stmt 1
 1157 0b60 577BE03E 		rlwinm %r27,%r27,28,0xffffffff
 1158 0b64 7F640120 		mtcrf 64,%r27
 1159 0b68 577B203E 		rlwinm %r27,%r27,4,0xffffffff
 1160 0b6c 41C60164 		beq- %cr1,.L30
 1161              		.loc 1 280 0 is_stmt 0 discriminator 1
 1162 0b70 579CE03E 		rlwinm %r28,%r28,28,0xffffffff
 1163 0b74 7F840120 		mtcrf 64,%r28
 1164 0b78 579C203E 		rlwinm %r28,%r28,4,0xffffffff
 1165 0b7c 41C60154 		beq- %cr1,.L30
 1166              		.loc 1 281 0 is_stmt 1
 1167 0b80 57BDE03E 		rlwinm %r29,%r29,28,0xffffffff
 1168 0b84 7FA40120 		mtcrf 64,%r29
 1169 0b88 57BD203E 		rlwinm %r29,%r29,4,0xffffffff
 1170 0b8c 41C60144 		beq- %cr1,.L30
 1171              		.loc 1 281 0 is_stmt 0 discriminator 1
 1172 0b90 41CA0140 		beq- %cr2,.L30
 1173              		.loc 1 282 0 is_stmt 1
 1174 0b94 57DEE03E 		rlwinm %r30,%r30,28,0xffffffff
 1175 0b98 7FC40120 		mtcrf 64,%r30
 1176 0b9c 57DE203E 		rlwinm %r30,%r30,4,0xffffffff
 1177 0ba0 41C60130 		beq- %cr1,.L30
 1178              		.loc 1 282 0 is_stmt 0 discriminator 1
 1179 0ba4 5400E03E 		rlwinm %r0,%r0,28,0xffffffff
 1180 0ba8 7C040120 		mtcrf 64,%r0
 1181 0bac 5400203E 		rlwinm %r0,%r0,4,0xffffffff
 1182 0bb0 41C60120 		beq- %cr1,.L30
 1183              		.loc 1 283 0 is_stmt 1
 1184 0bb4 556BE03E 		rlwinm %r11,%r11,28,0xffffffff
 1185 0bb8 7D640120 		mtcrf 64,%r11
 1186 0bbc 556B203E 		rlwinm %r11,%r11,4,0xffffffff
 1187 0bc0 41C60110 		beq- %cr1,.L30
 1188              		.loc 1 283 0 is_stmt 0 discriminator 1
 1189 0bc4 54A5E03E 		rlwinm %r5,%r5,28,0xffffffff
 1190 0bc8 7CA40120 		mtcrf 64,%r5
 1191 0bcc 54A5203E 		rlwinm %r5,%r5,4,0xffffffff
 1192 0bd0 41C60100 		beq- %cr1,.L30
 1193              		.loc 1 284 0 is_stmt 1
 1194 0bd4 54C6E03E 		rlwinm %r6,%r6,28,0xffffffff
 1195 0bd8 7CC40120 		mtcrf 64,%r6
 1196 0bdc 54C6203E 		rlwinm %r6,%r6,4,0xffffffff
 1197 0be0 41C600F0 		beq- %cr1,.L30
 1198              		.loc 1 284 0 is_stmt 0 discriminator 1
 1199 0be4 80810140 		lwz %r4,320(%r1)
 1200 0be8 2C840000 		cmpwi %cr1,%r4,0
 1201 0bec 41C600E4 		beq- %cr1,.L30
 1202              		.loc 1 285 0 is_stmt 1
 1203 0bf0 80810144 		lwz %r4,324(%r1)
 1204 0bf4 2C840000 		cmpwi %cr1,%r4,0
 1205 0bf8 41C600D8 		beq- %cr1,.L30
 1206              		.loc 1 285 0 is_stmt 0 discriminator 1
 1207 0bfc 80810148 		lwz %r4,328(%r1)
 1208 0c00 2C840000 		cmpwi %cr1,%r4,0
 1209 0c04 41C600CC 		beq- %cr1,.L30
 1210              		.loc 1 286 0 is_stmt 1
 1211 0c08 8081014C 		lwz %r4,332(%r1)
 1212 0c0c 2C840000 		cmpwi %cr1,%r4,0
 1213 0c10 41C600C0 		beq- %cr1,.L30
 1214              		.loc 1 286 0 is_stmt 0 discriminator 1
 1215 0c14 80810150 		lwz %r4,336(%r1)
 1216 0c18 2C840000 		cmpwi %cr1,%r4,0
 1217 0c1c 41C600B4 		beq- %cr1,.L30
 1218              		.loc 1 287 0 is_stmt 1
 1219 0c20 80810154 		lwz %r4,340(%r1)
 1220 0c24 2C840000 		cmpwi %cr1,%r4,0
 1221 0c28 41C600A8 		beq- %cr1,.L30
 1222              		.loc 1 287 0 is_stmt 0 discriminator 1
 1223 0c2c 80810158 		lwz %r4,344(%r1)
 1224 0c30 2C840000 		cmpwi %cr1,%r4,0
 1225 0c34 41C6009C 		beq- %cr1,.L30
 1226              		.loc 1 288 0 is_stmt 1
 1227 0c38 8081015C 		lwz %r4,348(%r1)
 1228 0c3c 2C840000 		cmpwi %cr1,%r4,0
 1229 0c40 41C60090 		beq- %cr1,.L30
 1230              		.loc 1 288 0 is_stmt 0 discriminator 1
 1231 0c44 80810160 		lwz %r4,352(%r1)
 1232 0c48 2C840000 		cmpwi %cr1,%r4,0
 1233 0c4c 41C60084 		beq- %cr1,.L30
 1234              		.loc 1 289 0 is_stmt 1
 1235 0c50 80810164 		lwz %r4,356(%r1)
 1236 0c54 2C840000 		cmpwi %cr1,%r4,0
 1237 0c58 41C60078 		beq- %cr1,.L30
 1238              		.loc 1 289 0 is_stmt 0 discriminator 1
 1239 0c5c 80810168 		lwz %r4,360(%r1)
 1240 0c60 2C840000 		cmpwi %cr1,%r4,0
 1241 0c64 41C6006C 		beq- %cr1,.L30
 1242              		.loc 1 290 0 is_stmt 1
 1243 0c68 8081016C 		lwz %r4,364(%r1)
 1244 0c6c 2C840000 		cmpwi %cr1,%r4,0
 1245 0c70 41C60060 		beq- %cr1,.L30
 1246              		.loc 1 290 0 is_stmt 0 discriminator 1
 1247 0c74 80810170 		lwz %r4,368(%r1)
 1248 0c78 2C840000 		cmpwi %cr1,%r4,0
 1249 0c7c 41C60054 		beq- %cr1,.L30
 1250              		.loc 1 291 0 is_stmt 1
 1251 0c80 80810174 		lwz %r4,372(%r1)
 1252 0c84 2C840000 		cmpwi %cr1,%r4,0
 1253 0c88 41C60048 		beq- %cr1,.L30
 1254              		.loc 1 291 0 is_stmt 0 discriminator 1
 1255 0c8c 80810178 		lwz %r4,376(%r1)
 1256 0c90 2C840000 		cmpwi %cr1,%r4,0
 1257 0c94 41C6003C 		beq- %cr1,.L30
 1258              		.loc 1 292 0 is_stmt 1
 1259 0c98 8081017C 		lwz %r4,380(%r1)
 1260 0c9c 2C840000 		cmpwi %cr1,%r4,0
 1261 0ca0 41C60030 		beq- %cr1,.L30
 1262              		.loc 1 292 0 is_stmt 0 discriminator 1
 1263 0ca4 80810180 		lwz %r4,384(%r1)
 1264 0ca8 2C840000 		cmpwi %cr1,%r4,0
 1265 0cac 41C60024 		beq- %cr1,.L30
 1266              		.loc 1 293 0 is_stmt 1
 1267 0cb0 80810184 		lwz %r4,388(%r1)
 1268 0cb4 2C840000 		cmpwi %cr1,%r4,0
 1269 0cb8 41C60018 		beq- %cr1,.L30
 1270              		.loc 1 273 0 discriminator 1
 1271 0cbc 80E10130 		lwz %r7,304(%r1)
 1272 0cc0 2C870000 		cmpwi %cr1,%r7,0
 1273 0cc4 7CE0199E 		isel %r7,0,%r3,6
 1274 0cc8 48000008 		b .L30
 1275              	.L150:
 1276              		.loc 1 273 0 is_stmt 0
 1277 0ccc 38E00000 		li %r7,0
 1278              	.L30:
 1279              		.loc 1 273 0 discriminator 4
 1280 0cd0 38810058 		addi %r4,%r1,88
 1281 0cd4 7CE921AE 		stbx %r7,%r9,%r4
 1282              		.loc 1 272 0 is_stmt 1 discriminator 4
 1283 0cd8 39290001 		addi %r9,%r9,1
 1284              	.LVL75:
 1285 0cdc 4200FDC0 		bdnz .L32
 1286              		.loc 1 302 0
 1287 0ce0 89210058 		lbz %r9,88(%r1)
 1288              	.LVL76:
 1289 0ce4 2F890000 		cmpwi %cr7,%r9,0
 1290 0ce8 40DE01D8 		bne- %cr7,.L33
 1291              		.loc 1 302 0 is_stmt 0 discriminator 1
 1292 0cec 89210059 		lbz %r9,89(%r1)
 1293 0cf0 2F890000 		cmpwi %cr7,%r9,0
 1294 0cf4 40DE01CC 		bne- %cr7,.L33
 1295 0cf8 8921005A 		lbz %r9,90(%r1)
 1296 0cfc 2F890000 		cmpwi %cr7,%r9,0
 1297 0d00 40DE01C0 		bne- %cr7,.L33
 1298              		.loc 1 303 0 is_stmt 1
 1299 0d04 8921005B 		lbz %r9,91(%r1)
 1300 0d08 2F890000 		cmpwi %cr7,%r9,0
 1301 0d0c 40DE01B4 		bne- %cr7,.L33
 1302              		.loc 1 303 0 is_stmt 0 discriminator 1
 1303 0d10 8921005C 		lbz %r9,92(%r1)
 1304 0d14 2F890000 		cmpwi %cr7,%r9,0
 1305 0d18 40DE01A8 		bne- %cr7,.L33
 1306              		.loc 1 304 0 is_stmt 1
 1307 0d1c 8921005D 		lbz %r9,93(%r1)
 1308 0d20 2F890000 		cmpwi %cr7,%r9,0
 1309 0d24 40DE019C 		bne- %cr7,.L33
 1310              		.loc 1 304 0 is_stmt 0 discriminator 1
 1311 0d28 8921005E 		lbz %r9,94(%r1)
 1312 0d2c 2F890000 		cmpwi %cr7,%r9,0
 1313 0d30 40DE0190 		bne- %cr7,.L33
 1314              		.loc 1 305 0 is_stmt 1
 1315 0d34 8921005F 		lbz %r9,95(%r1)
 1316 0d38 2F890000 		cmpwi %cr7,%r9,0
 1317 0d3c 40DE0184 		bne- %cr7,.L33
 1318              		.loc 1 305 0 is_stmt 0 discriminator 1
 1319 0d40 89210060 		lbz %r9,96(%r1)
 1320 0d44 2F890000 		cmpwi %cr7,%r9,0
 1321 0d48 40DE0178 		bne- %cr7,.L33
 1322              		.loc 1 306 0 is_stmt 1
 1323 0d4c 89210061 		lbz %r9,97(%r1)
 1324 0d50 2F890000 		cmpwi %cr7,%r9,0
 1325 0d54 40DE016C 		bne- %cr7,.L33
 1326              		.loc 1 306 0 is_stmt 0 discriminator 1
 1327 0d58 89210062 		lbz %r9,98(%r1)
 1328 0d5c 2F890000 		cmpwi %cr7,%r9,0
 1329 0d60 40DE0160 		bne- %cr7,.L33
 1330              		.loc 1 307 0 is_stmt 1
 1331 0d64 89210063 		lbz %r9,99(%r1)
 1332 0d68 2F890000 		cmpwi %cr7,%r9,0
 1333 0d6c 40DE0154 		bne- %cr7,.L33
 1334              		.loc 1 307 0 is_stmt 0 discriminator 1
 1335 0d70 89210064 		lbz %r9,100(%r1)
 1336 0d74 2F890000 		cmpwi %cr7,%r9,0
 1337 0d78 40DE0148 		bne- %cr7,.L33
 1338              		.loc 1 308 0 is_stmt 1
 1339 0d7c 89210065 		lbz %r9,101(%r1)
 1340 0d80 2F890000 		cmpwi %cr7,%r9,0
 1341 0d84 40DE013C 		bne- %cr7,.L33
 1342              		.loc 1 308 0 is_stmt 0 discriminator 1
 1343 0d88 89210066 		lbz %r9,102(%r1)
 1344 0d8c 2F890000 		cmpwi %cr7,%r9,0
 1345 0d90 40DE0130 		bne- %cr7,.L33
 1346              		.loc 1 309 0 is_stmt 1
 1347 0d94 89210067 		lbz %r9,103(%r1)
 1348 0d98 2F890000 		cmpwi %cr7,%r9,0
 1349 0d9c 40DE0124 		bne- %cr7,.L33
 1350              		.loc 1 309 0 is_stmt 0 discriminator 1
 1351 0da0 89210068 		lbz %r9,104(%r1)
 1352 0da4 2F890000 		cmpwi %cr7,%r9,0
 1353 0da8 40DE0118 		bne- %cr7,.L33
 1354              		.loc 1 310 0 is_stmt 1
 1355 0dac 89210069 		lbz %r9,105(%r1)
 1356 0db0 2F890000 		cmpwi %cr7,%r9,0
 1357 0db4 40DE010C 		bne- %cr7,.L33
 1358              		.loc 1 310 0 is_stmt 0 discriminator 1
 1359 0db8 8921006A 		lbz %r9,106(%r1)
 1360 0dbc 2F890000 		cmpwi %cr7,%r9,0
 1361 0dc0 40DE0100 		bne- %cr7,.L33
 1362              		.loc 1 311 0 is_stmt 1
 1363 0dc4 8921006B 		lbz %r9,107(%r1)
 1364 0dc8 2F890000 		cmpwi %cr7,%r9,0
 1365 0dcc 40DE00F4 		bne- %cr7,.L33
 1366              		.loc 1 311 0 is_stmt 0 discriminator 1
 1367 0dd0 8921006C 		lbz %r9,108(%r1)
 1368 0dd4 2F890000 		cmpwi %cr7,%r9,0
 1369 0dd8 40DE00E8 		bne- %cr7,.L33
 1370              		.loc 1 312 0 is_stmt 1
 1371 0ddc 8921006D 		lbz %r9,109(%r1)
 1372 0de0 2F890000 		cmpwi %cr7,%r9,0
 1373 0de4 40DE00DC 		bne- %cr7,.L33
 1374              		.loc 1 312 0 is_stmt 0 discriminator 1
 1375 0de8 8921006E 		lbz %r9,110(%r1)
 1376 0dec 2F890000 		cmpwi %cr7,%r9,0
 1377 0df0 40DE00D0 		bne- %cr7,.L33
 1378              		.loc 1 313 0 is_stmt 1
 1379 0df4 8921006F 		lbz %r9,111(%r1)
 1380 0df8 2F890000 		cmpwi %cr7,%r9,0
 1381 0dfc 40DE00C4 		bne- %cr7,.L33
 1382              		.loc 1 313 0 is_stmt 0 discriminator 1
 1383 0e00 89210070 		lbz %r9,112(%r1)
 1384 0e04 2F890000 		cmpwi %cr7,%r9,0
 1385 0e08 40DE00B8 		bne- %cr7,.L33
 1386              		.loc 1 314 0 is_stmt 1
 1387 0e0c 89210071 		lbz %r9,113(%r1)
 1388 0e10 2F890000 		cmpwi %cr7,%r9,0
 1389 0e14 40DE00AC 		bne- %cr7,.L33
 1390              		.loc 1 314 0 is_stmt 0 discriminator 1
 1391 0e18 89210072 		lbz %r9,114(%r1)
 1392 0e1c 2F890000 		cmpwi %cr7,%r9,0
 1393 0e20 40DE00A0 		bne- %cr7,.L33
 1394              		.loc 1 315 0 is_stmt 1
 1395 0e24 89210073 		lbz %r9,115(%r1)
 1396 0e28 2F890000 		cmpwi %cr7,%r9,0
 1397 0e2c 40DE0094 		bne- %cr7,.L33
 1398              		.loc 1 315 0 is_stmt 0 discriminator 1
 1399 0e30 89210074 		lbz %r9,116(%r1)
 1400 0e34 2F890000 		cmpwi %cr7,%r9,0
 1401 0e38 40DE0088 		bne- %cr7,.L33
 1402              		.loc 1 316 0 is_stmt 1
 1403 0e3c 89210075 		lbz %r9,117(%r1)
 1404 0e40 2F890000 		cmpwi %cr7,%r9,0
 1405 0e44 40DE007C 		bne- %cr7,.L33
 1406              		.loc 1 316 0 is_stmt 0 discriminator 1
 1407 0e48 89210076 		lbz %r9,118(%r1)
 1408 0e4c 2F890000 		cmpwi %cr7,%r9,0
 1409 0e50 40DE0070 		bne- %cr7,.L33
 1410              		.loc 1 317 0 is_stmt 1
 1411 0e54 89210077 		lbz %r9,119(%r1)
 1412 0e58 2F890000 		cmpwi %cr7,%r9,0
 1413 0e5c 40DE0064 		bne- %cr7,.L33
 1414              		.loc 1 317 0 is_stmt 0 discriminator 1
 1415 0e60 89210078 		lbz %r9,120(%r1)
 1416 0e64 2F890000 		cmpwi %cr7,%r9,0
 1417 0e68 40DE0058 		bne- %cr7,.L33
 1418              		.loc 1 318 0 is_stmt 1
 1419 0e6c 89210079 		lbz %r9,121(%r1)
 1420 0e70 2F890000 		cmpwi %cr7,%r9,0
 1421 0e74 40DE004C 		bne- %cr7,.L33
 1422              		.loc 1 318 0 is_stmt 0 discriminator 1
 1423 0e78 8921007A 		lbz %r9,122(%r1)
 1424 0e7c 2F890000 		cmpwi %cr7,%r9,0
 1425 0e80 40DE0040 		bne- %cr7,.L33
 1426              		.loc 1 319 0 is_stmt 1
 1427 0e84 8921007B 		lbz %r9,123(%r1)
 1428 0e88 2F890000 		cmpwi %cr7,%r9,0
 1429 0e8c 40DE0034 		bne- %cr7,.L33
 1430              		.loc 1 319 0 is_stmt 0 discriminator 1
 1431 0e90 8921007C 		lbz %r9,124(%r1)
 1432 0e94 2F890000 		cmpwi %cr7,%r9,0
 1433 0e98 40DE0028 		bne- %cr7,.L33
 1434              		.loc 1 320 0 is_stmt 1
 1435 0e9c 8921007D 		lbz %r9,125(%r1)
 1436 0ea0 2F890000 		cmpwi %cr7,%r9,0
 1437 0ea4 40DE001C 		bne- %cr7,.L33
 1438              		.loc 1 320 0 is_stmt 0 discriminator 1
 1439 0ea8 8921007E 		lbz %r9,126(%r1)
 1440 0eac 2F890000 		cmpwi %cr7,%r9,0
 1441 0eb0 40DE0010 		bne- %cr7,.L33
 1442              		.loc 1 321 0 is_stmt 1
 1443 0eb4 8921007F 		lbz %r9,127(%r1)
 1444 0eb8 2F890000 		cmpwi %cr7,%r9,0
 1445 0ebc 41DE01A8 		beq- %cr7,.L34
 1446              	.L33:
 1447              		.loc 1 323 0
 1448 0ec0 38600001 		li %r3,1
 1449 0ec4 808101E4 		lwz %r4,484(%r1)
 1450 0ec8 80A10134 		lwz %r5,308(%r1)
 1451 0ecc 48000001 		bl rt_ZCFcn
 1452              	.LVL77:
 1453 0ed0 2F830000 		cmpwi %cr7,%r3,0
 1454 0ed4 41DE000C 		beq- %cr7,.L35
 1455              		.loc 1 325 0
 1456 0ed8 39200001 		li %r9,1
 1457 0edc 993900A0 		stb %r9,160(%r25)
 1458              	.L35:
 1459              		.loc 1 329 0
 1460 0ee0 3D200000 		lis %r9,sohc_pct_R_limit@ha
 1461 0ee4 82490000 		lwz %r18,sohc_pct_R_limit@l(%r9)
 1462 0ee8 3D2042C8 		lis %r9,0x42c8
 1463 0eec 12524AC9 		efsdiv %r18,%r18,%r9
 1464              	.LVL78:
 1465 0ef0 3B600000 		li %r27,0
 1466              		.loc 1 379 0
 1467 0ef4 3F000000 		lis %r24,sohc_filter_coeff@ha
 1468 0ef8 3F803FF0 		lis %r28,0x3ff0
 1469 0efc 3BA00000 		li %r29,0
 1470              		.loc 1 383 0
 1471 0f00 3E603F80 		lis %r19,0x3f80
 1472              	.LVL79:
 1473              	.L46:
 1474              		.loc 1 332 0
 1475 0f04 893900A0 		lbz %r9,160(%r25)
 1476 0f08 2F890000 		cmpwi %cr7,%r9,0
 1477 0f0c 41DE000C 		beq- %cr7,.L36
 1478              		.loc 1 333 0
 1479 0f10 7D31D82E 		lwzx %r9,%r17,%r27
 1480 0f14 7D39D92E 		stwx %r9,%r25,%r27
 1481              	.L36:
 1482              		.loc 1 339 0
 1483 0f18 7D55D82E 		lwzx %r10,%r21,%r27
 1484 0f1c 7D36D82E 		lwzx %r9,%r22,%r27
 1485 0f20 112A4AC9 		efsdiv %r9,%r10,%r9
 1486 0f24 7D54D82E 		lwzx %r10,%r20,%r27
 1487 0f28 112A4AC9 		efsdiv %r9,%r10,%r9
 1488              	.LVL80:
 1489              		.loc 1 344 0
 1490 0f2c 7F59D82E 		lwzx %r26,%r25,%r27
 1491 0f30 115A92C8 		efsmul %r10,%r26,%r18
 1492              	.LVL81:
 1493              		.loc 1 349 0
 1494 0f34 121A52C0 		efsadd %r16,%r26,%r10
 1495              	.LVL82:
 1496              		.loc 1 354 0
 1497 0f38 115A52C1 		efssub %r10,%r26,%r10
 1498              	.LVL83:
 1499              		.loc 1 359 0
 1500 0f3c 138952CD 		efscmplt %cr7,%r9,%r10
 1501 0f40 41DD0008 		bgt- %cr7,.L37
 1502              		.loc 1 360 0
 1503 0f44 7D2A4B78 		mr %r10,%r9
 1504              	.LVL84:
 1505              	.L37:
 1506              		.loc 1 368 0
 1507 0f48 138982CC 		efscmpgt %cr7,%r9,%r16
 1508 0f4c 41DD0008 		bgt- %cr7,.L39
 1509              		.loc 1 369 0
 1510 0f50 7D505378 		mr %r16,%r10
 1511              	.LVL85:
 1512              	.L39:
 1513              		.loc 1 379 0
 1514 0f54 80780000 		lwz %r3,sohc_filter_coeff@l(%r24)
 1515              		.loc 1 380 0
 1516 0f58 82F80000 		lwz %r23,sohc_filter_coeff@l(%r24)
 1517              		.loc 1 379 0
 1518 0f5c 48000001 		bl __extendsfdf2
 1519              	.LVL86:
 1520 0f60 7C862378 		mr %r6,%r4
 1521 0f64 7C651B78 		mr %r5,%r3
 1522 0f68 7F83E378 		mr %r3,%r28
 1523 0f6c 7FA4EB78 		mr %r4,%r29
 1524 0f70 48000001 		bl __subdf3
 1525              	.LVL87:
 1526 0f74 7C9F2378 		mr %r31,%r4
 1527 0f78 7C7E1B78 		mr %r30,%r3
 1528 0f7c 7E038378 		mr %r3,%r16
 1529 0f80 48000001 		bl __extendsfdf2
 1530              	.LVL88:
 1531 0f84 7C862378 		mr %r6,%r4
 1532 0f88 7C651B78 		mr %r5,%r3
 1533 0f8c 7FC3F378 		mr %r3,%r30
 1534 0f90 7FE4FB78 		mr %r4,%r31
 1535 0f94 48000001 		bl __muldf3
 1536              	.LVL89:
 1537 0f98 7C9F2378 		mr %r31,%r4
 1538 0f9c 7C7E1B78 		mr %r30,%r3
 1539 0fa0 107ABAC8 		efsmul %r3,%r26,%r23
 1540 0fa4 48000001 		bl __extendsfdf2
 1541              	.LVL90:
 1542 0fa8 7C862378 		mr %r6,%r4
 1543 0fac 7C651B78 		mr %r5,%r3
 1544 0fb0 7FC3F378 		mr %r3,%r30
 1545 0fb4 7FE4FB78 		mr %r4,%r31
 1546 0fb8 48000001 		bl __adddf3
 1547              	.LVL91:
 1548 0fbc 48000001 		bl __truncdfsf2
 1549              	.LVL92:
 1550              		.loc 1 383 0
 1551 0fc0 13839ACC 		efscmpgt %cr7,%r3,%r19
 1552 0fc4 40DD000C 		bng- %cr7,.L151
 1553              		.loc 1 384 0
 1554 0fc8 7E6FD92E 		stwx %r19,%r15,%r27
 1555 0fcc 4800001C 		b .L43
 1556              	.L151:
 1557              		.loc 1 385 0
 1558 0fd0 39000000 		li %r8,0
 1559 0fd4 138342CD 		efscmplt %cr7,%r3,%r8
 1560 0fd8 40FD000C 		bng+ %cr7,.L152
 1561              		.loc 1 386 0
 1562 0fdc 7D0FD92E 		stwx %r8,%r15,%r27
 1563 0fe0 48000008 		b .L43
 1564              	.L152:
 1565              		.loc 1 388 0
 1566 0fe4 7C6FD92E 		stwx %r3,%r15,%r27
 1567              	.L43:
 1568              		.loc 1 394 0
 1569 0fe8 39210080 		addi %r9,%r1,128
 1570 0fec 7C7B492E 		stwx %r3,%r27,%r9
 1571              		.loc 1 330 0
 1572 0ff0 2F9B009C 		cmpwi %cr7,%r27,156
 1573 0ff4 3B7B0004 		addi %r27,%r27,4
 1574 0ff8 40FEFF0C 		bne+ %cr7,.L46
 1575              		.loc 1 398 0
 1576 0ffc 83AF0000 		lwz %r29,0(%r15)
 1577              	.LVL93:
 1578 1000 7DFC7B78 		mr %r28,%r15
 1579              		.loc 1 399 0
 1580 1004 3BC00000 		li %r30,0
 1581              	.LVL94:
 1582              	.L48:
 1583              		.loc 1 400 0
 1584 1008 87FC0004 		lwzu %r31,4(%r28)
 1585              	.LVL95:
 1586              		.loc 1 401 0
 1587 100c 139FEACC 		efscmpgt %cr7,%r31,%r29
 1588 1010 131FEACE 		efscmpeq %cr6,%r31,%r29
 1589 1014 4FBDCB82 		cror 4*%cr7+gt,4*%cr7+gt,4*%cr6+gt
 1590 1018 41FD0018 		bgt+ %cr7,.L47
 1591              		.loc 1 401 0 is_stmt 0 discriminator 1
 1592 101c 7FE3FB78 		mr %r3,%r31
 1593 1020 48000001 		bl rtIsNaN
 1594              	.LVL96:
 1595 1024 2F830000 		cmpwi %cr7,%r3,0
 1596 1028 40DE0008 		bne- %cr7,.L47
 1597              		.loc 1 402 0 is_stmt 1
 1598 102c 7FFDFB78 		mr %r29,%r31
 1599              	.LVL97:
 1600              	.L47:
 1601              		.loc 1 399 0
 1602 1030 2F9E0026 		cmpwi %cr7,%r30,38
 1603 1034 3BDE0001 		addi %r30,%r30,1
 1604              	.LVL98:
 1605 1038 40FEFFD0 		bne+ %cr7,.L48
 1606              		.loc 1 409 0
 1607 103c 3D2042C8 		lis %r9,0x42c8
 1608 1040 13BD4AC8 		efsmul %r29,%r29,%r9
 1609              	.LVL99:
 1610 1044 8081013C 		lwz %r4,316(%r1)
 1611 1048 93A40000 		stw %r29,0(%r4)
 1612              		.loc 1 412 0
 1613 104c 39200000 		li %r9,0
 1614 1050 993900A0 		stb %r9,160(%r25)
 1615              		.loc 1 413 0
 1616 1054 7F23CB78 		mr %r3,%r25
 1617 1058 38810080 		addi %r4,%r1,128
 1618 105c 38A000A0 		li %r5,160
 1619 1060 48000001 		bl memcpy
 1620              	.LVL100:
 1621              	.L34:
 1622              		.loc 1 419 0
 1623 1064 806101DC 		lwz %r3,476(%r1)
 1624 1068 80810138 		lwz %r4,312(%r1)
 1625 106c 38A000A0 		li %r5,160
 1626 1070 48000001 		bl memcpy
 1627              	.LVL101:
 1628              		.loc 1 422 0
 1629 1074 80C101DC 		lwz %r6,476(%r1)
 1630 1078 83A60000 		lwz %r29,0(%r6)
 1631              	.LVL102:
 1632 107c 7CDC3378 		mr %r28,%r6
 1633 1080 3BC00027 		li %r30,39
 1634              	.LVL103:
 1635              	.L50:
 1636              		.loc 1 424 0
 1637 1084 87FC0004 		lwzu %r31,4(%r28)
 1638              	.LVL104:
 1639              		.loc 1 425 0
 1640 1088 139FEACC 		efscmpgt %cr7,%r31,%r29
 1641 108c 131FEACE 		efscmpeq %cr6,%r31,%r29
 1642 1090 4FBDCB82 		cror 4*%cr7+gt,4*%cr7+gt,4*%cr6+gt
 1643 1094 41FD0018 		bgt+ %cr7,.L49
 1644              		.loc 1 425 0 is_stmt 0 discriminator 1
 1645 1098 7FE3FB78 		mr %r3,%r31
 1646 109c 48000001 		bl rtIsNaN
 1647              	.LVL105:
 1648 10a0 2F830000 		cmpwi %cr7,%r3,0
 1649 10a4 40DE0008 		bne- %cr7,.L49
 1650              		.loc 1 426 0 is_stmt 1
 1651 10a8 7FFDFB78 		mr %r29,%r31
 1652              	.LVL106:
 1653              	.L49:
 1654              		.loc 1 423 0
 1655 10ac 37DEFFFF 		addic. %r30,%r30,-1
 1656 10b0 40E2FFD4 		bne+ %cr0,.L50
 1657              		.loc 1 433 0
 1658 10b4 3D203F80 		lis %r9,0x3f80
 1659 10b8 139D4ACC 		efscmpgt %cr7,%r29,%r9
 1660 10bc 41FD0014 		bgt+ %cr7,.L138
 1661              		.loc 1 436 0
 1662 10c0 39200000 		li %r9,0
 1663 10c4 139D4ACD 		efscmplt %cr7,%r29,%r9
 1664 10c8 40FD0014 		bng+ %cr7,.L51
 1665 10cc 4800000C 		b .L139
 1666              	.L138:
 1667              		.loc 1 434 0
 1668 10d0 3FA03F80 		lis %r29,0x3f80
 1669              	.LVL107:
 1670 10d4 48000008 		b .L51
 1671              	.LVL108:
 1672              	.L139:
 1673              		.loc 1 437 0
 1674 10d8 3BA00000 		li %r29,0
 1675              	.LVL109:
 1676              	.L51:
 1677              		.loc 1 444 0
 1678 10dc 3D2042C8 		lis %r9,0x42c8
 1679 10e0 13BD4AC8 		efsmul %r29,%r29,%r9
 1680              	.LVL110:
 1681 10e4 812101D8 		lwz %r9,472(%r1)
 1682 10e8 93A90000 		stw %r29,0(%r9)
 1683              		.loc 1 445 0
 1684 10ec 800101D4 		lwz %r0,468(%r1)
 1685 10f0 81810188 		lwz %r12,392(%r1)
 1686 10f4 7C0803A6 		mtlr %r0
 1687 10f8 81E1018C 		lwz %r15,396(%r1)
 1688              	.LVL111:
 1689 10fc 82010190 		lwz %r16,400(%r1)
 1690 1100 82210194 		lwz %r17,404(%r1)
 1691              	.LVL112:
 1692 1104 82410198 		lwz %r18,408(%r1)
 1693 1108 8261019C 		lwz %r19,412(%r1)
 1694 110c 828101A0 		lwz %r20,416(%r1)
 1695              	.LVL113:
 1696 1110 82A101A4 		lwz %r21,420(%r1)
 1697              	.LVL114:
 1698 1114 82C101A8 		lwz %r22,424(%r1)
 1699              	.LVL115:
 1700 1118 82E101AC 		lwz %r23,428(%r1)
 1701 111c 830101B0 		lwz %r24,432(%r1)
 1702 1120 832101B4 		lwz %r25,436(%r1)
 1703 1124 834101B8 		lwz %r26,440(%r1)
 1704 1128 836101BC 		lwz %r27,444(%r1)
 1705 112c 838101C0 		lwz %r28,448(%r1)
 1706 1130 83A101C4 		lwz %r29,452(%r1)
 1707 1134 83C101C8 		lwz %r30,456(%r1)
 1708 1138 83E101CC 		lwz %r31,460(%r1)
 1709              	.LVL116:
 1710 113c 7D820120 		mtcrf 32,%r12
 1711 1140 7D810120 		mtcrf 16,%r12
 1712 1144 7D808120 		mtcrf 8,%r12
 1713 1148 382101D0 		addi %r1,%r1,464
 1714              	.LCFI7:
 1715              		.cfi_restore 31
 1716              		.cfi_restore 30
 1717              		.cfi_restore 29
 1718              		.cfi_restore 28
 1719              		.cfi_restore 27
 1720              		.cfi_restore 26
 1721              		.cfi_restore 25
 1722              		.cfi_restore 24
 1723              		.cfi_restore 23
 1724              		.cfi_restore 22
 1725              		.cfi_restore 21
 1726              		.cfi_restore 20
 1727              		.cfi_restore 19
 1728              		.cfi_restore 18
 1729              		.cfi_restore 17
 1730              		.cfi_restore 16
 1731              		.cfi_restore 15
 1732              		.cfi_restore 65
 1733              		.cfi_restore 70
 1734              		.cfi_def_cfa_offset 0
 1735 114c 4E800020 		blr
 1736              		.cfi_endproc
 1737              	.LFE4:
 1738              		.size	soh_SOH, .-soh_SOH
 1739              		.align 2
 1740              		.globl soh_Init
 1741              		.type	soh_Init, @function
 1742              	soh_Init:
 1743              	.LFB5:
 1744              		.loc 1 449 0
 1745              		.cfi_startproc
 1746              	.LVL117:
 1747 1150 9421FFF8 		stwu %r1,-8(%r1)
 1748              	.LCFI8:
 1749              		.cfi_def_cfa_offset 8
 1750 1154 7C0802A6 		mflr %r0
 1751 1158 9001000C 		stw %r0,12(%r1)
 1752              		.cfi_offset 65, 4
 1753              		.loc 1 455 0
 1754 115c 38630148 		addi %r3,%r3,328
 1755              	.LVL118:
 1756 1160 48000001 		bl soh_key_on_Init
 1757              	.LVL119:
 1758              		.loc 1 458 0
 1759 1164 8001000C 		lwz %r0,12(%r1)
 1760 1168 7C0803A6 		mtlr %r0
 1761 116c 38210008 		addi %r1,%r1,8
 1762              	.LCFI9:
 1763              		.cfi_restore 65
 1764              		.cfi_def_cfa_offset 0
 1765 1170 4E800020 		blr
 1766              		.cfi_endproc
 1767              	.LFE5:
 1768              		.size	soh_Init, .-soh_Init
 1769              		.align 2
 1770              		.globl soh_Start
 1771              		.type	soh_Start, @function
 1772              	soh_Start:
 1773              	.LFB6:
 1774              		.loc 1 462 0
 1775              		.cfi_startproc
 1776              	.LVL120:
 1777 1174 9421FFF0 		stwu %r1,-16(%r1)
 1778              	.LCFI10:
 1779              		.cfi_def_cfa_offset 16
 1780 1178 7C0802A6 		mflr %r0
 1781 117c 90010014 		stw %r0,20(%r1)
 1782 1180 93C10008 		stw %r30,8(%r1)
 1783 1184 93E1000C 		stw %r31,12(%r1)
 1784              		.cfi_offset 65, 4
 1785              		.cfi_offset 30, -8
 1786              		.cfi_offset 31, -4
 1787 1188 7C7E1B78 		mr %r30,%r3
 1788 118c 7C9F2378 		mr %r31,%r4
 1789              		.loc 1 467 0
 1790 1190 386400A4 		addi %r3,%r4,164
 1791              	.LVL121:
 1792 1194 48000001 		bl soh_SOH_Start
 1793              	.LVL122:
 1794              		.loc 1 472 0
 1795 1198 7FE3FB78 		mr %r3,%r31
 1796 119c 3C800000 		lis %r4,sohv_factoryInit_sohr@ha
 1797 11a0 38840000 		la %r4,sohv_factoryInit_sohr@l(%r4)
 1798 11a4 38A000A0 		li %r5,160
 1799 11a8 48000001 		bl memcpy
 1800              	.LVL123:
 1801              		.loc 1 478 0
 1802 11ac 7FC3F378 		mr %r3,%r30
 1803 11b0 3C800000 		lis %r4,sohv_factoryInit_sohc@ha
 1804 11b4 38840000 		la %r4,sohv_factoryInit_sohc@l(%r4)
 1805 11b8 38A000A0 		li %r5,160
 1806 11bc 48000001 		bl memcpy
 1807              	.LVL124:
 1808              		.loc 1 482 0
 1809 11c0 80010014 		lwz %r0,20(%r1)
 1810 11c4 7C0803A6 		mtlr %r0
 1811 11c8 83C10008 		lwz %r30,8(%r1)
 1812              	.LVL125:
 1813 11cc 83E1000C 		lwz %r31,12(%r1)
 1814              	.LVL126:
 1815 11d0 38210010 		addi %r1,%r1,16
 1816              	.LCFI11:
 1817              		.cfi_restore 31
 1818              		.cfi_restore 30
 1819              		.cfi_restore 65
 1820              		.cfi_def_cfa_offset 0
 1821 11d4 4E800020 		blr
 1822              		.cfi_endproc
 1823              	.LFE6:
 1824              		.size	soh_Start, .-soh_Start
 1825              		.align 2
 1826              		.globl soh
 1827              		.type	soh, @function
 1828              	soh:
 1829              	.LFB7:
 1830              		.loc 1 493 0
 1831              		.cfi_startproc
 1832              	.LVL127:
 1833 11d8 9421FFC0 		stwu %r1,-64(%r1)
 1834              	.LCFI12:
 1835              		.cfi_def_cfa_offset 64
 1836 11dc 7C0802A6 		mflr %r0
 1837 11e0 90010044 		stw %r0,68(%r1)
 1838 11e4 92E1001C 		stw %r23,28(%r1)
 1839 11e8 93010020 		stw %r24,32(%r1)
 1840 11ec 93210024 		stw %r25,36(%r1)
 1841 11f0 93410028 		stw %r26,40(%r1)
 1842 11f4 9361002C 		stw %r27,44(%r1)
 1843 11f8 93810030 		stw %r28,48(%r1)
 1844 11fc 93A10034 		stw %r29,52(%r1)
 1845 1200 93C10038 		stw %r30,56(%r1)
 1846 1204 93E1003C 		stw %r31,60(%r1)
 1847              		.cfi_offset 65, 4
 1848              		.cfi_offset 23, -36
 1849              		.cfi_offset 24, -32
 1850              		.cfi_offset 25, -28
 1851              		.cfi_offset 26, -24
 1852              		.cfi_offset 27, -20
 1853              		.cfi_offset 28, -16
 1854              		.cfi_offset 29, -12
 1855              		.cfi_offset 30, -8
 1856              		.cfi_offset 31, -4
 1857 1208 7C791B78 		mr %r25,%r3
 1858 120c 7C9A2378 		mr %r26,%r4
 1859 1210 7CBB2B78 		mr %r27,%r5
 1860 1214 7CDC3378 		mr %r28,%r6
 1861 1218 7CFD3B78 		mr %r29,%r7
 1862 121c 83C10060 		lwz %r30,96(%r1)
 1863 1220 83E10064 		lwz %r31,100(%r1)
 1864              		.loc 1 498 0
 1865 1224 88080000 		lbz %r0,0(%r8)
 1866 1228 39600001 		li %r11,1
 1867 122c 2F800000 		cmpwi %cr7,%r0,0
 1868 1230 40DE0010 		bne- %cr7,.L159
 1869              		.loc 1 498 0 is_stmt 0 discriminator 2
 1870 1234 89690000 		lbz %r11,0(%r9)
 1871 1238 7D6B00D0 		neg %r11,%r11
 1872 123c 556B0FFE 		srwi %r11,%r11,31
 1873              	.L159:
 1874              		.loc 1 498 0 discriminator 4
 1875 1240 556B063E 		rlwinm %r11,%r11,0,0xff
 1876              	.LVL128:
 1877              		.loc 1 503 0 is_stmt 1 discriminator 4
 1878 1244 813F00A0 		lwz %r9,160(%r31)
 1879              	.LVL129:
 1880 1248 75271000 		andis. %r7,%r9,4096
 1881              	.LVL130:
 1882 124c 40E200B0 		bne+ %cr0,.L160
 1883              		.loc 1 505 0
 1884 1250 893F00A0 		lbz %r9,160(%r31)
 1885              		.loc 1 509 0
 1886 1254 5529073E 		rlwinm %r9,%r9,0,28,31
 1887 1258 61290070 		ori %r9,%r9,112
 1888 125c 993F00A0 		stb %r9,160(%r31)
 1889              		.loc 1 512 0
 1890 1260 3D203F80 		lis %r9,0x3f80
 1891 1264 913E0000 		stw %r9,0(%r30)
 1892              		.loc 1 520 0
 1893 1268 3B1E0004 		addi %r24,%r30,4
 1894 126c 7F03C378 		mr %r3,%r24
 1895              	.LVL131:
 1896 1270 7FE4FB78 		mr %r4,%r31
 1897              	.LVL132:
 1898 1274 38A000A0 		li %r5,160
 1899              	.LVL133:
 1900 1278 48000001 		bl memcpy
 1901              	.LVL134:
 1902              		.loc 1 529 0
 1903 127c 7F03C378 		mr %r3,%r24
 1904 1280 7FA4EB78 		mr %r4,%r29
 1905 1284 80A1005C 		lwz %r5,92(%r1)
 1906 1288 38DF0148 		addi %r6,%r31,328
 1907 128c 48000001 		bl soh_key_on
 1908              	.LVL135:
 1909              		.loc 1 538 0
 1910 1290 3AFE00A4 		addi %r23,%r30,164
 1911 1294 7F23CB78 		mr %r3,%r25
 1912 1298 7F44D378 		mr %r4,%r26
 1913 129c 7F65DB78 		mr %r5,%r27
 1914 12a0 7F86E378 		mr %r6,%r28
 1915 12a4 80E10048 		lwz %r7,72(%r1)
 1916 12a8 7EE8BB78 		mr %r8,%r23
 1917 12ac 393F0288 		addi %r9,%r31,648
 1918 12b0 48000001 		bl soh_deltaCalc
 1919              	.LVL136:
 1920              		.loc 1 548 0
 1921 12b4 80DE0000 		lwz %r6,0(%r30)
 1922 12b8 81010054 		lwz %r8,84(%r1)
 1923 12bc 91010008 		stw %r8,8(%r1)
 1924 12c0 81210058 		lwz %r9,88(%r1)
 1925 12c4 9121000C 		stw %r9,12(%r1)
 1926 12c8 3BFF00A4 		addi %r31,%r31,164
 1927 12cc 93E10010 		stw %r31,16(%r1)
 1928 12d0 81410068 		lwz %r10,104(%r1)
 1929 12d4 91410014 		stw %r10,20(%r1)
 1930 12d8 7EE3BB78 		mr %r3,%r23
 1931 12dc 389E0144 		addi %r4,%r30,324
 1932 12e0 38BE01E4 		addi %r5,%r30,484
 1933 12e4 7F07C378 		mr %r7,%r24
 1934 12e8 7FA8EB78 		mr %r8,%r29
 1935 12ec 8121004C 		lwz %r9,76(%r1)
 1936 12f0 81410050 		lwz %r10,80(%r1)
 1937 12f4 48000001 		bl soh_SOH
 1938              	.LVL137:
 1939 12f8 480002C0 		b .L158
 1940              	.LVL138:
 1941              	.L160:
 1942              		.loc 1 556 0
 1943 12fc 813F00A0 		lwz %r9,160(%r31)
 1944 1300 55291F7E 		srwi %r9,%r9,29
 1945 1304 2F890002 		cmpwi %cr7,%r9,2
 1946 1308 41DE0028 		beq- %cr7,.L164
 1947 130c 2F890003 		cmpwi %cr7,%r9,3
 1948 1310 41DE00D8 		beq- %cr7,.L165
 1949 1314 2F890001 		cmpwi %cr7,%r9,1
 1950 1318 40FE01F8 		bne+ %cr7,.L169
 1951              		.loc 1 560 0
 1952 131c 893F00A0 		lbz %r9,160(%r31)
 1953 1320 552906FE 		rlwinm %r9,%r9,0,27,31
 1954 1324 61290040 		ori %r9,%r9,64
 1955 1328 993F00A0 		stb %r9,160(%r31)
 1956              		.loc 1 563 0
 1957 132c 4800028C 		b .L158
 1958              	.L164:
 1959              		.loc 1 567 0
 1960 1330 892A0000 		lbz %r9,0(%r10)
 1961 1334 7D674B79 		or. %r7,%r11,%r9
 1962 1338 41E20280 		beq+ %cr0,.L158
 1963              		.loc 1 569 0
 1964 133c 893F00A0 		lbz %r9,160(%r31)
 1965 1340 552906FE 		rlwinm %r9,%r9,0,27,31
 1966 1344 61290060 		ori %r9,%r9,96
 1967 1348 993F00A0 		stb %r9,160(%r31)
 1968              		.loc 1 572 0
 1969 134c 3D203F80 		lis %r9,0x3f80
 1970 1350 913E0000 		stw %r9,0(%r30)
 1971              		.loc 1 580 0
 1972 1354 3B1E0004 		addi %r24,%r30,4
 1973 1358 7F03C378 		mr %r3,%r24
 1974              	.LVL139:
 1975 135c 7FE4FB78 		mr %r4,%r31
 1976              	.LVL140:
 1977 1360 38A000A0 		li %r5,160
 1978              	.LVL141:
 1979 1364 48000001 		bl memcpy
 1980              	.LVL142:
 1981              		.loc 1 589 0
 1982 1368 7F03C378 		mr %r3,%r24
 1983 136c 7FA4EB78 		mr %r4,%r29
 1984 1370 80A1005C 		lwz %r5,92(%r1)
 1985 1374 38DF0148 		addi %r6,%r31,328
 1986 1378 48000001 		bl soh_key_on
 1987              	.LVL143:
 1988              		.loc 1 598 0
 1989 137c 3AFE00A4 		addi %r23,%r30,164
 1990 1380 7F23CB78 		mr %r3,%r25
 1991 1384 7F44D378 		mr %r4,%r26
 1992 1388 7F65DB78 		mr %r5,%r27
 1993 138c 7F86E378 		mr %r6,%r28
 1994 1390 80E10048 		lwz %r7,72(%r1)
 1995 1394 7EE8BB78 		mr %r8,%r23
 1996 1398 393F0288 		addi %r9,%r31,648
 1997 139c 48000001 		bl soh_deltaCalc
 1998              	.LVL144:
 1999              		.loc 1 608 0
 2000 13a0 80DE0000 		lwz %r6,0(%r30)
 2001 13a4 81010054 		lwz %r8,84(%r1)
 2002 13a8 91010008 		stw %r8,8(%r1)
 2003 13ac 81210058 		lwz %r9,88(%r1)
 2004 13b0 9121000C 		stw %r9,12(%r1)
 2005 13b4 3BFF00A4 		addi %r31,%r31,164
 2006              	.LVL145:
 2007 13b8 93E10010 		stw %r31,16(%r1)
 2008 13bc 81410068 		lwz %r10,104(%r1)
 2009 13c0 91410014 		stw %r10,20(%r1)
 2010 13c4 7EE3BB78 		mr %r3,%r23
 2011 13c8 389E0144 		addi %r4,%r30,324
 2012 13cc 38BE01E4 		addi %r5,%r30,484
 2013 13d0 7F07C378 		mr %r7,%r24
 2014 13d4 7FA8EB78 		mr %r8,%r29
 2015 13d8 8121004C 		lwz %r9,76(%r1)
 2016 13dc 81410050 		lwz %r10,80(%r1)
 2017 13e0 48000001 		bl soh_SOH
 2018              	.LVL146:
 2019 13e4 480001D4 		b .L158
 2020              	.LVL147:
 2021              	.L165:
 2022              		.loc 1 620 0
 2023 13e8 892A0000 		lbz %r9,0(%r10)
 2024 13ec 7D674B79 		or. %r7,%r11,%r9
 2025 13f0 41C2008C 		beq- %cr0,.L166
 2026              		.loc 1 622 0
 2027 13f4 893F00A0 		lbz %r9,160(%r31)
 2028 13f8 552906FE 		rlwinm %r9,%r9,0,27,31
 2029 13fc 3940FF80 		li %r10,-128
 2030              	.LVL148:
 2031 1400 7D295378 		or %r9,%r9,%r10
 2032 1404 993F00A0 		stb %r9,160(%r31)
 2033              		.loc 1 625 0
 2034 1408 39200000 		li %r9,0
 2035 140c 913E0000 		stw %r9,0(%r30)
 2036              		.loc 1 633 0
 2037 1410 3B1E00A4 		addi %r24,%r30,164
 2038 1414 7F23CB78 		mr %r3,%r25
 2039              	.LVL149:
 2040 1418 7F44D378 		mr %r4,%r26
 2041              	.LVL150:
 2042 141c 7F65DB78 		mr %r5,%r27
 2043              	.LVL151:
 2044 1420 7F86E378 		mr %r6,%r28
 2045              	.LVL152:
 2046 1424 80E10048 		lwz %r7,72(%r1)
 2047 1428 7F08C378 		mr %r8,%r24
 2048              	.LVL153:
 2049 142c 393F0288 		addi %r9,%r31,648
 2050 1430 48000001 		bl soh_deltaCalc
 2051              	.LVL154:
 2052              		.loc 1 643 0
 2053 1434 80DE0000 		lwz %r6,0(%r30)
 2054 1438 81010054 		lwz %r8,84(%r1)
 2055 143c 91010008 		stw %r8,8(%r1)
 2056 1440 81210058 		lwz %r9,88(%r1)
 2057 1444 9121000C 		stw %r9,12(%r1)
 2058 1448 3BFF00A4 		addi %r31,%r31,164
 2059              	.LVL155:
 2060 144c 93E10010 		stw %r31,16(%r1)
 2061 1450 81410068 		lwz %r10,104(%r1)
 2062 1454 91410014 		stw %r10,20(%r1)
 2063 1458 7F03C378 		mr %r3,%r24
 2064 145c 389E0144 		addi %r4,%r30,324
 2065 1460 38BE01E4 		addi %r5,%r30,484
 2066 1464 38FE0004 		addi %r7,%r30,4
 2067 1468 7FA8EB78 		mr %r8,%r29
 2068 146c 8121004C 		lwz %r9,76(%r1)
 2069 1470 81410050 		lwz %r10,80(%r1)
 2070 1474 48000001 		bl soh_SOH
 2071              	.LVL156:
 2072 1478 48000140 		b .L158
 2073              	.LVL157:
 2074              	.L166:
 2075              		.loc 1 656 0
 2076 147c 3B1E0004 		addi %r24,%r30,4
 2077 1480 7F03C378 		mr %r3,%r24
 2078              	.LVL158:
 2079 1484 7FE4FB78 		mr %r4,%r31
 2080              	.LVL159:
 2081 1488 38A000A0 		li %r5,160
 2082              	.LVL160:
 2083 148c 48000001 		bl memcpy
 2084              	.LVL161:
 2085              		.loc 1 665 0
 2086 1490 7F03C378 		mr %r3,%r24
 2087 1494 7FA4EB78 		mr %r4,%r29
 2088 1498 80A1005C 		lwz %r5,92(%r1)
 2089 149c 38DF0148 		addi %r6,%r31,328
 2090 14a0 48000001 		bl soh_key_on
 2091              	.LVL162:
 2092              		.loc 1 674 0
 2093 14a4 3AFE00A4 		addi %r23,%r30,164
 2094 14a8 7F23CB78 		mr %r3,%r25
 2095 14ac 7F44D378 		mr %r4,%r26
 2096 14b0 7F65DB78 		mr %r5,%r27
 2097 14b4 7F86E378 		mr %r6,%r28
 2098 14b8 80E10048 		lwz %r7,72(%r1)
 2099 14bc 7EE8BB78 		mr %r8,%r23
 2100 14c0 393F0288 		addi %r9,%r31,648
 2101 14c4 48000001 		bl soh_deltaCalc
 2102              	.LVL163:
 2103              		.loc 1 684 0
 2104 14c8 80DE0000 		lwz %r6,0(%r30)
 2105 14cc 80E10054 		lwz %r7,84(%r1)
 2106 14d0 90E10008 		stw %r7,8(%r1)
 2107 14d4 81010058 		lwz %r8,88(%r1)
 2108 14d8 9101000C 		stw %r8,12(%r1)
 2109 14dc 3BFF00A4 		addi %r31,%r31,164
 2110              	.LVL164:
 2111 14e0 93E10010 		stw %r31,16(%r1)
 2112 14e4 81210068 		lwz %r9,104(%r1)
 2113 14e8 91210014 		stw %r9,20(%r1)
 2114 14ec 7EE3BB78 		mr %r3,%r23
 2115 14f0 389E0144 		addi %r4,%r30,324
 2116 14f4 38BE01E4 		addi %r5,%r30,484
 2117 14f8 7F07C378 		mr %r7,%r24
 2118 14fc 7FA8EB78 		mr %r8,%r29
 2119 1500 8121004C 		lwz %r9,76(%r1)
 2120 1504 81410050 		lwz %r10,80(%r1)
 2121 1508 48000001 		bl soh_SOH
 2122              	.LVL165:
 2123 150c 480000AC 		b .L158
 2124              	.LVL166:
 2125              	.L169:
 2126              		.loc 1 696 0
 2127 1510 2F8B0000 		cmpwi %cr7,%r11,0
 2128 1514 40DE003C 		bne- %cr7,.L167
 2129              		.loc 1 696 0 is_stmt 0 discriminator 1
 2130 1518 892A0000 		lbz %r9,0(%r10)
 2131 151c 2F890000 		cmpwi %cr7,%r9,0
 2132 1520 40FE0030 		bne+ %cr7,.L167
 2133              		.loc 1 698 0 is_stmt 1
 2134 1524 893F00A0 		lbz %r9,160(%r31)
 2135 1528 552906FE 		rlwinm %r9,%r9,0,27,31
 2136 152c 61290020 		ori %r9,%r9,32
 2137 1530 993F00A0 		stb %r9,160(%r31)
 2138              		.loc 1 701 0
 2139 1534 39200000 		li %r9,0
 2140 1538 913E0000 		stw %r9,0(%r30)
 2141              		.loc 1 709 0
 2142 153c 7FE3FB78 		mr %r3,%r31
 2143              	.LVL167:
 2144 1540 80810050 		lwz %r4,80(%r1)
 2145              	.LVL168:
 2146 1544 38A000A0 		li %r5,160
 2147              	.LVL169:
 2148 1548 48000001 		bl memcpy
 2149              	.LVL170:
 2150 154c 4800006C 		b .L158
 2151              	.LVL171:
 2152              	.L167:
 2153              		.loc 1 719 0
 2154 1550 3B1E00A4 		addi %r24,%r30,164
 2155 1554 7F23CB78 		mr %r3,%r25
 2156              	.LVL172:
 2157 1558 7F44D378 		mr %r4,%r26
 2158              	.LVL173:
 2159 155c 7F65DB78 		mr %r5,%r27
 2160              	.LVL174:
 2161 1560 7F86E378 		mr %r6,%r28
 2162              	.LVL175:
 2163 1564 80E10048 		lwz %r7,72(%r1)
 2164 1568 7F08C378 		mr %r8,%r24
 2165              	.LVL176:
 2166 156c 393F0288 		addi %r9,%r31,648
 2167 1570 48000001 		bl soh_deltaCalc
 2168              	.LVL177:
 2169              		.loc 1 729 0
 2170 1574 80DE0000 		lwz %r6,0(%r30)
 2171 1578 81410054 		lwz %r10,84(%r1)
 2172 157c 91410008 		stw %r10,8(%r1)
 2173 1580 80E10058 		lwz %r7,88(%r1)
 2174 1584 90E1000C 		stw %r7,12(%r1)
 2175 1588 3BFF00A4 		addi %r31,%r31,164
 2176              	.LVL178:
 2177 158c 93E10010 		stw %r31,16(%r1)
 2178 1590 81010068 		lwz %r8,104(%r1)
 2179 1594 91010014 		stw %r8,20(%r1)
 2180 1598 7F03C378 		mr %r3,%r24
 2181 159c 389E0144 		addi %r4,%r30,324
 2182 15a0 38BE01E4 		addi %r5,%r30,484
 2183 15a4 38FE0004 		addi %r7,%r30,4
 2184 15a8 7FA8EB78 		mr %r8,%r29
 2185 15ac 8121004C 		lwz %r9,76(%r1)
 2186 15b0 81410050 		lwz %r10,80(%r1)
 2187 15b4 48000001 		bl soh_SOH
 2188              	.LVL179:
 2189              	.L158:
 2190              		.loc 1 743 0
 2191 15b8 80010044 		lwz %r0,68(%r1)
 2192 15bc 7C0803A6 		mtlr %r0
 2193 15c0 82E1001C 		lwz %r23,28(%r1)
 2194 15c4 83010020 		lwz %r24,32(%r1)
 2195 15c8 83210024 		lwz %r25,36(%r1)
 2196              	.LVL180:
 2197 15cc 83410028 		lwz %r26,40(%r1)
 2198              	.LVL181:
 2199 15d0 8361002C 		lwz %r27,44(%r1)
 2200              	.LVL182:
 2201 15d4 83810030 		lwz %r28,48(%r1)
 2202              	.LVL183:
 2203 15d8 83A10034 		lwz %r29,52(%r1)
 2204              	.LVL184:
 2205 15dc 83C10038 		lwz %r30,56(%r1)
 2206 15e0 83E1003C 		lwz %r31,60(%r1)
 2207 15e4 38210040 		addi %r1,%r1,64
 2208              	.LCFI13:
 2209              		.cfi_restore 31
 2210              		.cfi_restore 30
 2211              		.cfi_restore 29
 2212              		.cfi_restore 28
 2213              		.cfi_restore 27
 2214              		.cfi_restore 26
 2215              		.cfi_restore 25
 2216              		.cfi_restore 24
 2217              		.cfi_restore 23
 2218              		.cfi_restore 65
 2219              		.cfi_def_cfa_offset 0
 2220 15e8 4E800020 		blr
 2221              		.cfi_endproc
 2222              	.LFE7:
 2223              		.size	soh, .-soh
 2224              		.align 2
 2225              		.globl soh_initialize
 2226              		.type	soh_initialize, @function
 2227              	soh_initialize:
 2228              	.LFB8:
 2229              		.loc 1 748 0
 2230              		.cfi_startproc
 2231              	.LVL185:
 2232 15ec 9421FFE8 		stwu %r1,-24(%r1)
 2233              	.LCFI14:
 2234              		.cfi_def_cfa_offset 24
 2235 15f0 7C0802A6 		mflr %r0
 2236 15f4 9001001C 		stw %r0,28(%r1)
 2237 15f8 93A1000C 		stw %r29,12(%r1)
 2238 15fc 93C10010 		stw %r30,16(%r1)
 2239 1600 93E10014 		stw %r31,20(%r1)
 2240              		.cfi_offset 65, 4
 2241              		.cfi_offset 29, -12
 2242              		.cfi_offset 30, -8
 2243              		.cfi_offset 31, -4
 2244 1604 7C7D1B78 		mr %r29,%r3
 2245 1608 7C9E2378 		mr %r30,%r4
 2246 160c 7CBF2B78 		mr %r31,%r5
 2247              		.loc 1 752 0
 2248 1610 38600004 		li %r3,4
 2249              	.LVL186:
 2250 1614 48000001 		bl rt_InitInfAndNaN
 2251              	.LVL187:
 2252              		.loc 1 755 0
 2253 1618 93BE0000 		stw %r29,0(%r30)
 2254              		.loc 1 756 0
 2255 161c 39200003 		li %r9,3
 2256 1620 993F0000 		stb %r9,0(%r31)
 2257              		.loc 1 757 0
 2258 1624 8001001C 		lwz %r0,28(%r1)
 2259 1628 7C0803A6 		mtlr %r0
 2260 162c 83A1000C 		lwz %r29,12(%r1)
 2261              	.LVL188:
 2262 1630 83C10010 		lwz %r30,16(%r1)
 2263              	.LVL189:
 2264 1634 83E10014 		lwz %r31,20(%r1)
 2265              	.LVL190:
 2266 1638 38210018 		addi %r1,%r1,24
 2267              	.LCFI15:
 2268              		.cfi_restore 31
 2269              		.cfi_restore 30
 2270              		.cfi_restore 29
 2271              		.cfi_restore 65
 2272              		.cfi_def_cfa_offset 0
 2273 163c 4E800020 		blr
 2274              		.cfi_endproc
 2275              	.LFE8:
 2276              		.size	soh_initialize, .-soh_initialize
 2277              	.Letext0:
 2278              		.file 2 "c:\\openecu\\platform\\2_8_0_r2019-1\\tools\\gcc_4_7_3\\ppc\\bin\\../lib/gcc/powerpc-eabi
 2279              		.file 3 "../../../slprj/openecu_ert/_sharedutils/rtwtypes.h"
 2280              		.file 4 "c:/openecu/platform/2_8_0_r2019-1/openecu/../targets/M110/M110_000/mpc5534_lib/include/ps
 2281              		.file 5 "../../../slprj/openecu_ert/_sharedutils/zero_crossing_types.h"
 2282              		.file 6 "soh_types.h"
 2283              		.file 7 "soh.h"
 2284              		.file 8 "../../../slprj/openecu_ert/_sharedutils/global.h"
 2285              		.file 9 "soh_private.h"
 2286              		.file 10 "../../../slprj/openecu_ert/_sharedutils/look2_binlx.h"
 2287              		.file 11 "../../../slprj/openecu_ert/_sharedutils/rt_nonfinite.h"
 2288              		.file 12 "../../../slprj/openecu_ert/_sharedutils/rt_zcfcn.h"